(imatplotlib.font_manager
FontManager
p1
(dp2
S'afm_lookup_cache'
p3
(dp4
sS'ttflist'
p5
(lp6
ccopy_reg
_reconstructor
p7
(cmatplotlib.font_manager
FontEntry
p8
c__builtin__
object
p9
NtRp10
(dp11
S'style'
p12
S'normal'
p13
sS'name'
p14
S'Bitstream Vera Sans Mono'
p15
sS'weight'
p16
I400
sS'stretch'
p17
g13
sS'variant'
p18
g13
sS'fname'
p19
S'/usr/local/lib/python2.7/site-packages/matplotlib/mpl-data/fonts/ttf/VeraMono.ttf'
p20
sS'size'
p21
S'scalable'
p22
sbag7
(g8
g9
NtRp23
(dp24
g12
g13
sg14
S'cmr10'
p25
sg16
I400
sg17
g13
sg18
g13
sg19
S'/usr/local/lib/python2.7/site-packages/matplotlib/mpl-data/fonts/ttf/cmr10.ttf'
p26
sg21
g22
sbag7
(g8
g9
NtRp27
(dp28
g12
g13
sg14
S'STIXSizeFourSym'
p29
sg16
I400
sg17
g13
sg18
g13
sg19
S'/usr/local/lib/python2.7/site-packages/matplotlib/mpl-data/fonts/ttf/STIXSizFourSymReg.ttf'
p30
sg21
g22
sbag7
(g8
g9
NtRp31
(dp32
g12
g13
sg14
S'STIXSizeTwoSym'
p33
sg16
I400
sg17
g13
sg18
g13
sg19
S'/usr/local/lib/python2.7/site-packages/matplotlib/mpl-data/fonts/ttf/STIXSizTwoSymReg.ttf'
p34
sg21
g22
sbag7
(g8
g9
NtRp35
(dp36
g12
g13
sg14
S'STIXSizeThreeSym'
p37
sg16
I700
sg17
g13
sg18
g13
sg19
S'/usr/local/lib/python2.7/site-packages/matplotlib/mpl-data/fonts/ttf/STIXSizThreeSymBol.ttf'
p38
sg21
g22
sbag7
(g8
g9
NtRp39
(dp40
g12
S'italic'
p41
sg14
S'STIXGeneral'
p42
sg16
I700
sg17
g13
sg18
g13
sg19
S'/usr/local/lib/python2.7/site-packages/matplotlib/mpl-data/fonts/ttf/STIXGeneralBolIta.ttf'
p43
sg21
g22
sbag7
(g8
g9
NtRp44
(dp45
g12
S'oblique'
p46
sg14
S'Bitstream Vera Sans'
p47
sg16
I700
sg17
g13
sg18
g13
sg19
S'/usr/local/lib/python2.7/site-packages/matplotlib/mpl-data/fonts/ttf/VeraBI.ttf'
p48
sg21
g22
sbag7
(g8
g9
NtRp49
(dp50
g12
g13
sg14
S'cmtt10'
p51
sg16
I400
sg17
g13
sg18
g13
sg19
S'/usr/local/lib/python2.7/site-packages/matplotlib/mpl-data/fonts/ttf/cmtt10.ttf'
p52
sg21
g22
sbag7
(g8
g9
NtRp53
(dp54
g12
g13
sg14
S'STIXSizeTwoSym'
p55
sg16
I700
sg17
g13
sg18
g13
sg19
S'/usr/local/lib/python2.7/site-packages/matplotlib/mpl-data/fonts/ttf/STIXSizTwoSymBol.ttf'
p56
sg21
g22
sbag7
(g8
g9
NtRp57
(dp58
g12
g13
sg14
S'STIXGeneral'
p59
sg16
I400
sg17
g13
sg18
g13
sg19
S'/usr/local/lib/python2.7/site-packages/matplotlib/mpl-data/fonts/ttf/STIXGeneral.ttf'
p60
sg21
g22
sbag7
(g8
g9
NtRp61
(dp62
g12
g13
sg14
S'cmmi10'
p63
sg16
I400
sg17
g13
sg18
g13
sg19
S'/usr/local/lib/python2.7/site-packages/matplotlib/mpl-data/fonts/ttf/cmmi10.ttf'
p64
sg21
g22
sbag7
(g8
g9
NtRp65
(dp66
g12
g13
sg14
S'STIXSizeOneSym'
p67
sg16
I700
sg17
g13
sg18
g13
sg19
S'/usr/local/lib/python2.7/site-packages/matplotlib/mpl-data/fonts/ttf/STIXSizOneSymBol.ttf'
p68
sg21
g22
sbag7
(g8
g9
NtRp69
(dp70
g12
g13
sg14
S'cmb10'
p71
sg16
I400
sg17
g13
sg18
g13
sg19
S'/usr/local/lib/python2.7/site-packages/matplotlib/mpl-data/fonts/ttf/cmb10.ttf'
p72
sg21
g22
sbag7
(g8
g9
NtRp73
(dp74
g12
g13
sg14
S'STIXSizeThreeSym'
p75
sg16
I400
sg17
g13
sg18
g13
sg19
S'/usr/local/lib/python2.7/site-packages/matplotlib/mpl-data/fonts/ttf/STIXSizThreeSymReg.ttf'
p76
sg21
g22
sbag7
(g8
g9
NtRp77
(dp78
g12
g13
sg14
S'STIXSizeFiveSym'
p79
sg16
I400
sg17
g13
sg18
g13
sg19
S'/usr/local/lib/python2.7/site-packages/matplotlib/mpl-data/fonts/ttf/STIXSizFiveSymReg.ttf'
p80
sg21
g22
sbag7
(g8
g9
NtRp81
(dp82
g12
g41
sg14
S'STIXGeneral'
p83
sg16
I400
sg17
g13
sg18
g13
sg19
S'/usr/local/lib/python2.7/site-packages/matplotlib/mpl-data/fonts/ttf/STIXGeneralItalic.ttf'
p84
sg21
g22
sbag7
(g8
g9
NtRp85
(dp86
g12
g13
sg14
S'Bitstream Vera Sans'
p87
sg16
I700
sg17
g13
sg18
g13
sg19
S'/usr/local/lib/python2.7/site-packages/matplotlib/mpl-data/fonts/ttf/VeraBd.ttf'
p88
sg21
g22
sbag7
(g8
g9
NtRp89
(dp90
g12
g13
sg14
S'cmss10'
p91
sg16
I400
sg17
g13
sg18
g13
sg19
S'/usr/local/lib/python2.7/site-packages/matplotlib/mpl-data/fonts/ttf/cmss10.ttf'
p92
sg21
g22
sbag7
(g8
g9
NtRp93
(dp94
g12
g13
sg14
S'Bitstream Vera Serif'
p95
sg16
I700
sg17
g13
sg18
g13
sg19
S'/usr/local/lib/python2.7/site-packages/matplotlib/mpl-data/fonts/ttf/VeraSeBd.ttf'
p96
sg21
g22
sbag7
(g8
g9
NtRp97
(dp98
g12
g46
sg14
S'Bitstream Vera Sans Mono'
p99
sg16
I700
sg17
g13
sg18
g13
sg19
S'/usr/local/lib/python2.7/site-packages/matplotlib/mpl-data/fonts/ttf/VeraMoBI.ttf'
p100
sg21
g22
sbag7
(g8
g9
NtRp101
(dp102
g12
g13
sg14
S'Bitstream Vera Sans Mono'
p103
sg16
I700
sg17
g13
sg18
g13
sg19
S'/usr/local/lib/python2.7/site-packages/matplotlib/mpl-data/fonts/ttf/VeraMoBd.ttf'
p104
sg21
g22
sbag7
(g8
g9
NtRp105
(dp106
g12
g46
sg14
S'Bitstream Vera Sans Mono'
p107
sg16
I400
sg17
g13
sg18
g13
sg19
S'/usr/local/lib/python2.7/site-packages/matplotlib/mpl-data/fonts/ttf/VeraMoIt.ttf'
p108
sg21
g22
sbag7
(g8
g9
NtRp109
(dp110
g12
g13
sg14
S'Bitstream Vera Sans'
p111
sg16
I400
sg17
g13
sg18
g13
sg19
S'/usr/local/lib/python2.7/site-packages/matplotlib/mpl-data/fonts/ttf/Vera.ttf'
p112
sg21
g22
sbag7
(g8
g9
NtRp113
(dp114
g12
g41
sg14
S'STIXNonUnicode'
p115
sg16
I700
sg17
g13
sg18
g13
sg19
S'/usr/local/lib/python2.7/site-packages/matplotlib/mpl-data/fonts/ttf/STIXNonUniBolIta.ttf'
p116
sg21
g22
sbag7
(g8
g9
NtRp117
(dp118
g12
g13
sg14
S'STIXNonUnicode'
p119
sg16
I700
sg17
g13
sg18
g13
sg19
S'/usr/local/lib/python2.7/site-packages/matplotlib/mpl-data/fonts/ttf/STIXNonUniBol.ttf'
p120
sg21
g22
sbag7
(g8
g9
NtRp121
(dp122
g12
g13
sg14
S'STIXSizeOneSym'
p123
sg16
I400
sg17
g13
sg18
g13
sg19
S'/usr/local/lib/python2.7/site-packages/matplotlib/mpl-data/fonts/ttf/STIXSizOneSymReg.ttf'
p124
sg21
g22
sbag7
(g8
g9
NtRp125
(dp126
g12
g13
sg14
S'STIXGeneral'
p127
sg16
I700
sg17
g13
sg18
g13
sg19
S'/usr/local/lib/python2.7/site-packages/matplotlib/mpl-data/fonts/ttf/STIXGeneralBol.ttf'
p128
sg21
g22
sbag7
(g8
g9
NtRp129
(dp130
g12
g46
sg14
S'Bitstream Vera Sans'
p131
sg16
I400
sg17
g13
sg18
g13
sg19
S'/usr/local/lib/python2.7/site-packages/matplotlib/mpl-data/fonts/ttf/VeraIt.ttf'
p132
sg21
g22
sbag7
(g8
g9
NtRp133
(dp134
g12
g13
sg14
S'STIXNonUnicode'
p135
sg16
I400
sg17
g13
sg18
g13
sg19
S'/usr/local/lib/python2.7/site-packages/matplotlib/mpl-data/fonts/ttf/STIXNonUni.ttf'
p136
sg21
g22
sbag7
(g8
g9
NtRp137
(dp138
g12
g13
sg14
S'cmex10'
p139
sg16
I400
sg17
g13
sg18
g13
sg19
S'/usr/local/lib/python2.7/site-packages/matplotlib/mpl-data/fonts/ttf/cmex10.ttf'
p140
sg21
g22
sbag7
(g8
g9
NtRp141
(dp142
g12
g13
sg14
S'cmsy10'
p143
sg16
I400
sg17
g13
sg18
g13
sg19
S'/usr/local/lib/python2.7/site-packages/matplotlib/mpl-data/fonts/ttf/cmsy10.ttf'
p144
sg21
g22
sbag7
(g8
g9
NtRp145
(dp146
g12
g41
sg14
S'STIXNonUnicode'
p147
sg16
I400
sg17
g13
sg18
g13
sg19
S'/usr/local/lib/python2.7/site-packages/matplotlib/mpl-data/fonts/ttf/STIXNonUniIta.ttf'
p148
sg21
g22
sbag7
(g8
g9
NtRp149
(dp150
g12
g13
sg14
S'STIXSizeFourSym'
p151
sg16
I700
sg17
g13
sg18
g13
sg19
S'/usr/local/lib/python2.7/site-packages/matplotlib/mpl-data/fonts/ttf/STIXSizFourSymBol.ttf'
p152
sg21
g22
sbag7
(g8
g9
NtRp153
(dp154
g12
g13
sg14
S'Bitstream Vera Serif'
p155
sg16
I400
sg17
g13
sg18
g13
sg19
S'/usr/local/lib/python2.7/site-packages/matplotlib/mpl-data/fonts/ttf/VeraSe.ttf'
p156
sg21
g22
sbag7
(g8
g9
NtRp157
(dp158
g12
g41
sg14
S'Trebuchet MS'
p159
sg16
I400
sg17
g13
sg18
g13
sg19
S'/Library/Fonts/Trebuchet MS Italic.ttf'
p160
sg21
g22
sbag7
(g8
g9
NtRp161
(dp162
g12
g13
sg14
S'Mshtakan'
p163
sg16
I400
sg17
g13
sg18
g13
sg19
S'/Library/Fonts/MshtakanRegular.ttf'
p164
sg21
g22
sbag7
(g8
g9
NtRp165
(dp166
g12
g13
sg14
S'Meslo LG L for Powerline'
p167
sg16
I400
sg17
g13
sg18
g13
sg19
S'/Users/peitalin/Library/Fonts/Meslo LG L Regular for Powerline.otf'
p168
sg21
g22
sbag7
(g8
g9
NtRp169
(dp170
g12
g41
sg14
S'Myriad Pro'
p171
sg16
I400
sg17
S'condensed'
p172
sg18
g13
sg19
S'/Library/Fonts/MyriadPro-CondIt.otf'
p173
sg21
g22
sbag7
(g8
g9
NtRp174
(dp175
g12
g13
sg14
S'Coolvetica'
p176
sg16
I400
sg17
g13
sg18
g13
sg19
S'/Users/peitalin/Library/Fonts/coolvetica rg.otf'
p177
sg21
g22
sbag7
(g8
g9
NtRp178
(dp179
g12
g13
sg14
S'Poplar Std'
p180
sg16
I900
sg17
g13
sg18
g13
sg19
S'/Library/Fonts/PoplarStd.otf'
p181
sg21
g22
sbag7
(g8
g9
NtRp182
(dp183
g12
g41
sg14
S'Liberation Mono for Powerline'
p184
sg16
I400
sg17
g13
sg18
g13
sg19
S'/Users/peitalin/Library/Fonts/Literation Mono Powerline Italic.ttf'
p185
sg21
g22
sbag7
(g8
g9
NtRp186
(dp187
g12
g13
sg14
S'Source Code Pro for Powerline'
p188
sg16
I400
sg17
g13
sg18
g13
sg19
S'/Users/peitalin/Library/Fonts/Sauce Code Powerline Regular.otf'
p189
sg21
g22
sbag7
(g8
g9
NtRp190
(dp191
g12
g13
sg14
S'Kozuka Gothic Pr6N'
p192
sg16
I400
sg17
g13
sg18
g13
sg19
S'/Library/Fonts/KozGoPr6N-ExtraLight.otf'
p193
sg21
g22
sbag7
(g8
g9
NtRp194
(dp195
g12
g41
sg14
S'Gill Sans MT'
p196
sg16
I400
sg17
g13
sg18
g13
sg19
S'/Library/Fonts/Microsoft/Gill Sans MT Italic.ttf'
p197
sg21
g22
sbag7
(g8
g9
NtRp198
(dp199
g12
g13
sg14
S'Times New Roman'
p200
sg16
I500
sg17
g13
sg18
g13
sg19
S'/Library/Fonts/Times New Roman.ttf'
p201
sg21
g22
sbag7
(g8
g9
NtRp202
(dp203
g12
g13
sg14
S'Liberation Mono for Powerline'
p204
sg16
I700
sg17
g13
sg18
g13
sg19
S'/Users/peitalin/Library/Fonts/Literation Mono Powerline Bold.ttf'
p205
sg21
g22
sbag7
(g8
g9
NtRp206
(dp207
g12
g13
sg14
S'DejaVu Sans Mono for Powerline'
p208
sg16
I700
sg17
g13
sg18
g13
sg19
S'/Users/peitalin/Library/Fonts/DejaVu Sans Mono Bold for Powerline.ttf'
p209
sg21
g22
sbag7
(g8
g9
NtRp210
(dp211
g12
g13
sg14
S'Linux Biolinum O'
p212
sg16
I400
sg17
g13
sg18
g13
sg19
S'/Users/peitalin/Library/Fonts/LinBiolinum_R.otf'
p213
sg21
g22
sbag7
(g8
g9
NtRp214
(dp215
g12
g13
sg14
S'AppleMyungjo'
p216
sg16
I400
sg17
g13
sg18
g13
sg19
S'/Library/Fonts/AppleMyungjo.ttf'
p217
sg21
g22
sbag7
(g8
g9
NtRp218
(dp219
g12
g13
sg14
S'Ubuntu'
p220
sg16
I400
sg17
g13
sg18
g13
sg19
S'/Users/peitalin/Library/Fonts/Ubuntu-R.ttf'
p221
sg21
g22
sbag7
(g8
g9
NtRp222
(dp223
g12
g13
sg14
S'Osaka'
p224
sg16
I400
sg17
g13
sg18
g13
sg19
S'/Library/Fonts/Osaka.ttf'
p225
sg21
g22
sbag7
(g8
g9
NtRp226
(dp227
g12
g13
sg14
S'Droid Sans Mono for Powerline'
p228
sg16
I400
sg17
g13
sg18
g13
sg19
S'/Users/peitalin/Library/Fonts/Droid Sans Mono for Powerline.otf'
p229
sg21
g22
sbag7
(g8
g9
NtRp230
(dp231
g12
g13
sg14
S'Source Code Pro for Powerline'
p232
sg16
I900
sg17
g13
sg18
g13
sg19
S'/Users/peitalin/Library/Fonts/Sauce Code Powerline Black.otf'
p233
sg21
g22
sbag7
(g8
g9
NtRp234
(dp235
g12
g13
sg14
S'STIXSizeThreeSym'
p236
sg16
I700
sg17
g13
sg18
g13
sg19
S'/Library/Fonts/STIXSizThreeSymBol.otf'
p237
sg21
g22
sbag7
(g8
g9
NtRp238
(dp239
g12
g13
sg14
S'Symbol'
p240
sg16
I400
sg17
g13
sg18
g13
sg19
S'/System/Library/Fonts/Symbol.ttf'
p241
sg21
g22
sbag7
(g8
g9
NtRp242
(dp243
g12
g13
sg14
S'Futura Lt BT'
p244
sg16
I200
sg17
g13
sg18
g13
sg19
S'/Users/peitalin/Library/Fonts/Futura Light BT.ttf'
p245
sg21
g22
sbag7
(g8
g9
NtRp246
(dp247
g12
g13
sg14
S'East Syriac Ctesiphon'
p248
sg16
I400
sg17
g13
sg18
g13
sg19
S'/usr/X11/lib/X11/fonts/OTF/SyrCOMCtesiphon.otf'
p249
sg21
g22
sbag7
(g8
g9
NtRp250
(dp251
g12
g13
sg14
S'Al Bayan'
p252
sg16
I400
sg17
g13
sg18
g13
sg19
S'/Library/Fonts/AlBayan.ttf'
p253
sg21
g22
sbag7
(g8
g9
NtRp254
(dp255
g12
g13
sg14
S'Candara'
p256
sg16
I700
sg17
g13
sg18
g13
sg19
S'/Library/Fonts/Microsoft/Candara Bold.ttf'
p257
sg21
g22
sbag7
(g8
g9
NtRp258
(dp259
g12
g13
sg14
S'Tw Cen MT'
p260
sg16
I400
sg17
g13
sg18
g13
sg19
S'/Library/Fonts/Microsoft/Tw Cen MT.ttf'
p261
sg21
g22
sbag7
(g8
g9
NtRp262
(dp263
g12
g13
sg14
S'Ubuntu Mono'
p264
sg16
I400
sg17
g13
sg18
g13
sg19
S'/Users/peitalin/Library/Fonts/UbuntuMono-R.ttf'
p265
sg21
g22
sbag7
(g8
g9
NtRp266
(dp267
g12
g41
sg14
S'Myriad Pro'
p268
sg16
I400
sg17
g13
sg18
g13
sg19
S'/Library/Fonts/MyriadPro-It.otf'
p269
sg21
g22
sbag7
(g8
g9
NtRp270
(dp271
g12
g13
sg14
S'Corbel'
p272
sg16
I700
sg17
g13
sg18
g13
sg19
S'/Library/Fonts/Microsoft/Corbel Bold.ttf'
p273
sg21
g22
sbag7
(g8
g9
NtRp274
(dp275
g12
g13
sg14
S'Nadeem'
p276
sg16
I400
sg17
g13
sg18
g13
sg19
S'/Library/Fonts/Nadeem.ttf'
p277
sg21
g22
sbag7
(g8
g9
NtRp278
(dp279
g12
g13
sg14
S'Al Bayan'
p280
sg16
I700
sg17
g13
sg18
g13
sg19
S'/Library/Fonts/AlBayanBold.ttf'
p281
sg21
g22
sbag7
(g8
g9
NtRp282
(dp283
g12
g13
sg14
S'Kozuka Gothic Pr6N'
p284
sg16
I400
sg17
g13
sg18
g13
sg19
S'/Library/Fonts/KozGoPr6N-Regular.otf'
p285
sg21
g22
sbag7
(g8
g9
NtRp286
(dp287
g12
g41
sg14
S'Ubuntu Mono'
p288
sg16
I400
sg17
g13
sg18
g13
sg19
S'/Users/peitalin/Library/Fonts/UbuntuMono-RI.ttf'
p289
sg21
g22
sbag7
(g8
g9
NtRp290
(dp291
g12
g41
sg14
S'Arial'
p292
sg16
I700
sg17
g13
sg18
g13
sg19
S'/Library/Fonts/Arial Bold Italic.ttf'
p293
sg21
g22
sbag7
(g8
g9
NtRp294
(dp295
g12
g13
sg14
S'Tekton Pro'
p296
sg16
I700
sg17
g13
sg18
g13
sg19
S'/Library/Fonts/TektonPro-Bold.otf'
p297
sg21
g22
sbag7
(g8
g9
NtRp298
(dp299
g12
g13
sg14
S'Source Code Pro for Powerline'
p300
sg16
I700
sg17
g13
sg18
g13
sg19
S'/Users/peitalin/Library/Fonts/Sauce Code Powerline Semibold.otf'
p301
sg21
g22
sbag7
(g8
g9
NtRp302
(dp303
g12
g13
sg14
S'Serto Batnan'
p304
sg16
I400
sg17
g13
sg18
g13
sg19
S'/usr/X11/lib/X11/fonts/OTF/SyrCOMBatnan.otf'
p305
sg21
g22
sbag7
(g8
g9
NtRp306
(dp307
g12
g13
sg14
S'Mshtakan'
p308
sg16
I700
sg17
g13
sg18
g13
sg19
S'/Library/Fonts/MshtakanBold.ttf'
p309
sg21
g22
sbag7
(g8
g9
NtRp310
(dp311
g12
g41
sg14
S'Myriad Arabic'
p312
sg16
I400
sg17
g13
sg18
g13
sg19
S'/Library/Fonts/MyriadArabic-It.otf'
p313
sg21
g22
sbag7
(g8
g9
NtRp314
(dp315
g12
g41
sg14
S'Nueva Std'
p316
sg16
I400
sg17
g13
sg18
g13
sg19
S'/Library/Fonts/NuevaStd-Italic.otf'
p317
sg21
g22
sbag7
(g8
g9
NtRp318
(dp319
g12
g13
sg14
S'Calibri'
p320
sg16
I200
sg17
g13
sg18
g13
sg19
S'/Library/Fonts/Microsoft/Calibril.ttf'
p321
sg21
g22
sbag7
(g8
g9
NtRp322
(dp323
g12
g13
sg14
S'Letter Gothic Std'
p324
sg16
I500
sg17
g13
sg18
g13
sg19
S'/Library/Fonts/LetterGothicStd.otf'
p325
sg21
g22
sbag7
(g8
g9
NtRp326
(dp327
g12
g13
sg14
S'STIXSizeFiveSym'
p328
sg16
I400
sg17
g13
sg18
g13
sg19
S'/Library/Fonts/STIXSizFiveSymReg.otf'
p329
sg21
g22
sbag7
(g8
g9
NtRp330
(dp331
g12
g13
sg14
S'Serto Urhoy'
p332
sg16
I700
sg17
g13
sg18
g13
sg19
S'/usr/X11/lib/X11/fonts/OTF/SyrCOMUrhoyBold.otf'
p333
sg21
g22
sbag7
(g8
g9
NtRp334
(dp335
g12
g13
sg14
S'Gurmukhi MT'
p336
sg16
I400
sg17
g13
sg18
g13
sg19
S'/Library/Fonts/Gurmukhi.ttf'
p337
sg21
g22
sbag7
(g8
g9
NtRp338
(dp339
g12
g13
sg14
S'YuGothic'
p340
sg16
I700
sg17
g13
sg18
g13
sg19
S'/Library/Fonts/Yu Gothic Bold.otf'
p341
sg21
g22
sbag7
(g8
g9
NtRp342
(dp343
g12
g41
sg14
S'Cambria'
p344
sg16
I400
sg17
g13
sg18
g13
sg19
S'/Library/Fonts/Microsoft/Cambria Italic.ttf'
p345
sg21
g22
sbag7
(g8
g9
NtRp346
(dp347
g12
g46
sg14
S'Tekton Pro'
p348
sg16
I700
sg17
g13
sg18
g13
sg19
S'/Library/Fonts/TektonPro-BoldObl.otf'
p349
sg21
g22
sbag7
(g8
g9
NtRp350
(dp351
g12
g13
sg14
S'East Syriac Adiabene'
p352
sg16
I400
sg17
g13
sg18
g13
sg19
S'/usr/X11/lib/X11/fonts/OTF/SyrCOMAdiabene.otf'
p353
sg21
g22
sbag7
(g8
g9
NtRp354
(dp355
g12
g13
sg14
S'Adobe Myungjo Std'
p356
sg16
I400
sg17
g13
sg18
g13
sg19
S'/Library/Fonts/AdobeMyungjoStd-Medium.otf'
p357
sg21
g22
sbag7
(g8
g9
NtRp358
(dp359
g12
g13
sg14
S'Hiragino Maru Gothic Pro'
p360
sg16
I400
sg17
g13
sg18
g13
sg19
S'/Library/Fonts/\xe3\x83\x92\xe3\x83\xa9\xe3\x82\xad\xe3\x82\x99\xe3\x83\x8e\xe4\xb8\xb8\xe3\x82\xb3\xe3\x82\x99 Pro W4.otf'
p361
sg21
g22
sbag7
(g8
g9
NtRp362
(dp363
g12
g41
sg14
S'Perpetua'
p364
sg16
I700
sg17
g13
sg18
g13
sg19
S'/Library/Fonts/Microsoft/Perpetua Bold Italic.ttf'
p365
sg21
g22
sbag7
(g8
g9
NtRp366
(dp367
g12
g13
sg14
S'Adobe Gothic Std'
p368
sg16
I700
sg17
g13
sg18
g13
sg19
S'/Library/Fonts/AdobeGothicStd-Bold.otf'
p369
sg21
g22
sbag7
(g8
g9
NtRp370
(dp371
g12
g13
sg14
S'Estrangelo Talada'
p372
sg16
I400
sg17
g13
sg18
g13
sg19
S'/usr/X11/lib/X11/fonts/OTF/SyrCOMTalada.otf'
p373
sg21
g22
sbag7
(g8
g9
NtRp374
(dp375
g12
g13
sg14
S'Verdana'
p376
sg16
I700
sg17
g13
sg18
g13
sg19
S'/Library/Fonts/Microsoft/Verdana Bold.ttf'
p377
sg21
g22
sbag7
(g8
g9
NtRp378
(dp379
g12
g13
sg14
S'Myriad Pro'
p380
sg16
I700
sg17
g13
sg18
g13
sg19
S'/Library/Fonts/MyriadPro-Semibold.otf'
p381
sg21
g22
sbag7
(g8
g9
NtRp382
(dp383
g12
g13
sg14
S'Verdana'
p384
sg16
I400
sg17
g13
sg18
g13
sg19
S'/Library/Fonts/Microsoft/Verdana.ttf'
p385
sg21
g22
sbag7
(g8
g9
NtRp386
(dp387
g12
g13
sg14
S'Khmer Sangam MN'
p388
sg16
I400
sg17
g13
sg18
g13
sg19
S'/Library/Fonts/Khmer Sangam MN.ttf'
p389
sg21
g22
sbag7
(g8
g9
NtRp390
(dp391
g12
g13
sg14
S'PCMyungjo'
p392
sg16
I400
sg17
g13
sg18
g13
sg19
S'/Library/Fonts/PCmyoungjo.ttf'
p393
sg21
g22
sbag7
(g8
g9
NtRp394
(dp395
g12
g13
sg14
S'MingLiU_HKSCS'
p396
sg16
I400
sg17
g13
sg18
g13
sg19
S'/Library/Fonts/Microsoft/mingliu_hkscs.ttf'
p397
sg21
g22
sbag7
(g8
g9
NtRp398
(dp399
g12
g13
sg14
S'Kozuka Mincho Pr6N'
p400
sg16
I700
sg17
g13
sg18
g13
sg19
S'/Library/Fonts/KozMinPr6N-Bold.otf'
p401
sg21
g22
sbag7
(g8
g9
NtRp402
(dp403
g12
g41
sg14
S'Verdana'
p404
sg16
I700
sg17
g13
sg18
g13
sg19
S'/Library/Fonts/Verdana Bold Italic.ttf'
p405
sg21
g22
sbag7
(g8
g9
NtRp406
(dp407
g12
g13
sg14
S'Estrangelo Quenneshrin'
p408
sg16
I400
sg17
g13
sg18
g13
sg19
S'/usr/X11/lib/X11/fonts/OTF/SyrCOMQenNeshrin.otf'
p409
sg21
g22
sbag7
(g8
g9
NtRp410
(dp411
g12
g13
sg14
S'DejaVu Sans Mono for Powerline'
p412
sg16
I400
sg17
g13
sg18
g13
sg19
S'/Users/peitalin/Library/Fonts/DejaVu Sans Mono for Powerline.ttf'
p413
sg21
g22
sbag7
(g8
g9
NtRp414
(dp415
g12
g13
sg14
S'Estrangelo Edessa'
p416
sg16
I400
sg17
g13
sg18
g13
sg19
S'/usr/X11/lib/X11/fonts/OTF/SyrCOMEdessa.otf'
p417
sg21
g22
sbag7
(g8
g9
NtRp418
(dp419
g12
g13
sg14
S'Kokonor'
p420
sg16
I400
sg17
g13
sg18
g13
sg19
S'/Library/Fonts/Kokonor.ttf'
p421
sg21
g22
sbag7
(g8
g9
NtRp422
(dp423
g12
g13
sg14
S'Goha-Tibeb Zemen'
p424
sg16
I400
sg17
g13
sg18
g13
sg19
S'/usr/X11/lib/X11/fonts/OTF/GohaTibebZemen.otf'
p425
sg21
g22
sbag7
(g8
g9
NtRp426
(dp427
g12
g41
sg14
S'Adobe Devanagari'
p428
sg16
I700
sg17
g13
sg18
g13
sg19
S'/Library/Fonts/AdobeDevanagari-BoldItalic.otf'
p429
sg21
g22
sbag7
(g8
g9
NtRp430
(dp431
g12
g13
sg14
S'Apple Braille'
p432
sg16
I400
sg17
g13
sg18
g13
sg19
S'/System/Library/Fonts/Apple Braille.ttf'
p433
sg21
g22
sbag7
(g8
g9
NtRp434
(dp435
g12
g13
sg14
S'Hiragino Mincho Pro'
p436
sg16
I700
sg17
g13
sg18
g13
sg19
S'/Library/Fonts/\xe3\x83\x92\xe3\x83\xa9\xe3\x82\xad\xe3\x82\x99\xe3\x83\x8e\xe6\x98\x8e\xe6\x9c\x9d Pro W6.otf'
p437
sg21
g22
sbag7
(g8
g9
NtRp438
(dp439
g12
g13
sg14
S'Kailasa'
p440
sg16
I400
sg17
g13
sg18
g13
sg19
S'/Library/Fonts/Kailasa.ttf'
p441
sg21
g22
sbag7
(g8
g9
NtRp442
(dp443
g12
g41
sg14
S'STIXNonUnicode'
p444
sg16
I400
sg17
g13
sg18
g13
sg19
S'/Library/Fonts/STIXNonUniIta.otf'
p445
sg21
g22
sbag7
(g8
g9
NtRp446
(dp447
g12
g13
sg14
S'MS Mincho'
p448
sg16
I400
sg17
g13
sg18
g13
sg19
S'/Library/Fonts/Microsoft/MS Mincho.ttf'
p449
sg21
g22
sbag7
(g8
g9
NtRp450
(dp451
g12
g13
sg14
S'Tekton Pro'
p452
sg16
I700
sg17
g13
sg18
g13
sg19
S'/Library/Fonts/TektonPro-BoldExt.otf'
p453
sg21
g22
sbag7
(g8
g9
NtRp454
(dp455
g12
g41
sg14
S'Chaparral Pro'
p456
sg16
I400
sg17
g13
sg18
g13
sg19
S'/Library/Fonts/ChaparralPro-Italic.otf'
p457
sg21
g22
sbag7
(g8
g9
NtRp458
(dp459
g12
g13
sg14
S'Comic Sans MS'
p460
sg16
I700
sg17
g13
sg18
g13
sg19
S'/Library/Fonts/Comic Sans MS Bold.ttf'
p461
sg21
g22
sbag7
(g8
g9
NtRp462
(dp463
g12
g13
sg14
S'Luxi Sans'
p464
sg16
I400
sg17
g13
sg18
g13
sg19
S'/usr/X11/lib/X11/fonts/TTF/luxisr.ttf'
p465
sg21
g22
sbag7
(g8
g9
NtRp466
(dp467
g12
g41
sg14
S'Adobe Garamond Pro'
p468
sg16
I700
sg17
g13
sg18
g13
sg19
S'/Library/Fonts/AGaramondPro-BoldItalic.otf'
p469
sg21
g22
sbag7
(g8
g9
NtRp470
(dp471
g12
g13
sg14
S'Apple SD Gothic Neo'
p472
sg16
I700
sg17
g13
sg18
g13
sg19
S'/Library/Fonts/AppleSDGothicNeo-SemiBold.otf'
p473
sg21
g22
sbag7
(g8
g9
NtRp474
(dp475
g12
g13
sg14
S'STIXNonUnicode'
p476
sg16
I700
sg17
g13
sg18
g13
sg19
S'/Library/Fonts/STIXNonUniBol.otf'
p477
sg21
g22
sbag7
(g8
g9
NtRp478
(dp479
g12
g13
sg14
S'Webdings'
p480
sg16
I400
sg17
g13
sg18
g13
sg19
S'/Library/Fonts/Webdings.ttf'
p481
sg21
g22
sbag7
(g8
g9
NtRp482
(dp483
g12
g13
sg14
S'Apple Braille'
p484
sg16
I400
sg17
g13
sg18
g13
sg19
S'/System/Library/Fonts/Apple Braille Pinpoint 6 Dot.ttf'
p485
sg21
g22
sbag7
(g8
g9
NtRp486
(dp487
g12
g13
sg14
S'Kozuka Mincho Pr6N'
p488
sg16
I700
sg17
g13
sg18
g13
sg19
S'/Library/Fonts/KozMinPr6N-Heavy.otf'
p489
sg21
g22
sbag7
(g8
g9
NtRp490
(dp491
g12
g13
sg14
S'MingLiU_HKSCS-ExtB'
p492
sg16
I400
sg17
g13
sg18
g13
sg19
S'/Library/Fonts/Microsoft/MingLiU_HKSCS-ExtB.ttf'
p493
sg21
g22
sbag7
(g8
g9
NtRp494
(dp495
g12
g13
sg14
S'Kozuka Gothic Pro'
p496
sg16
I700
sg17
g13
sg18
g13
sg19
S'/Library/Fonts/KozGoPro-Heavy.otf'
p497
sg21
g22
sbag7
(g8
g9
NtRp498
(dp499
g12
g13
sg14
S'Source Code Pro for Powerline'
p500
sg16
I500
sg17
g13
sg18
g13
sg19
S'/Users/peitalin/Library/Fonts/Sauce Code Powerline Medium.otf'
p501
sg21
g22
sbag7
(g8
g9
NtRp502
(dp503
g12
g41
sg14
S'Franklin Gothic Book'
p504
sg16
I400
sg17
g13
sg18
g13
sg19
S'/Library/Fonts/Microsoft/Franklin Gothic Book Italic.ttf'
p505
sg21
g22
sbag7
(g8
g9
NtRp506
(dp507
g12
g13
sg14
S'Anonymous Pro for Powerline'
p508
sg16
I700
sg17
g13
sg18
g13
sg19
S'/Users/peitalin/Library/Fonts/Anonymice Powerline Bold.ttf'
p509
sg21
g22
sbag7
(g8
g9
NtRp510
(dp511
g12
g41
sg14
S'Palatino Linotype'
p512
sg16
I700
sg17
g13
sg18
g13
sg19
S'/Library/Fonts/Microsoft/Palatino Linotype Bold Italic.ttf'
p513
sg21
g22
sbag7
(g8
g9
NtRp514
(dp515
g12
g13
sg14
S'STIXIntegralsUpSm'
p516
sg16
I400
sg17
g13
sg18
g13
sg19
S'/Library/Fonts/STIXIntUpSmReg.otf'
p517
sg21
g22
sbag7
(g8
g9
NtRp518
(dp519
g12
g13
sg14
S'Meiryo'
p520
sg16
I400
sg17
g13
sg18
g13
sg19
S'/Library/Fonts/Microsoft/Meiryo.ttf'
p521
sg21
g22
sbag7
(g8
g9
NtRp522
(dp523
g12
g41
sg14
S'Minion Pro'
p524
sg16
I500
sg17
g13
sg18
g13
sg19
S'/Library/Fonts/MinionPro-MediumIt.otf'
p525
sg21
g22
sbag7
(g8
g9
NtRp526
(dp527
g12
g13
sg14
S'Kozuka Mincho Pro'
p528
sg16
I400
sg17
g13
sg18
g13
sg19
S'/Library/Fonts/KozMinPro-Regular.otf'
p529
sg21
g22
sbag7
(g8
g9
NtRp530
(dp531
g12
g13
sg14
S'Kai'
p532
sg16
I400
sg17
g13
sg18
g13
sg19
S'/Library/Fonts/Kai.ttf'
p533
sg21
g22
sbag7
(g8
g9
NtRp534
(dp535
g12
g13
sg14
S'Palace Script MT Std'
p536
sg16
I400
sg17
g13
sg18
g13
sg19
S'/Users/peitalin/Library/Fonts/Palace Script MT Std.ttf'
p537
sg21
g22
sbag7
(g8
g9
NtRp538
(dp539
g12
g41
sg14
S'Courier New'
p540
sg16
I400
sg17
g13
sg18
g13
sg19
S'/Library/Fonts/Courier New Italic.ttf'
p541
sg21
g22
sbag7
(g8
g9
NtRp542
(dp543
g12
g13
sg14
S'Arial Black'
p544
sg16
I900
sg17
g13
sg18
g13
sg19
S'/Library/Fonts/Arial Black.ttf'
p545
sg21
g22
sbag7
(g8
g9
NtRp546
(dp547
g12
g41
sg14
S'Myriad Pro'
p548
sg16
I700
sg17
g13
sg18
g13
sg19
S'/Library/Fonts/MyriadPro-SemiboldIt.otf'
p549
sg21
g22
sbag7
(g8
g9
NtRp550
(dp551
g12
g13
sg14
S'Luxi Serif'
p552
sg16
I400
sg17
g13
sg18
g13
sg19
S'/usr/X11/lib/X11/fonts/TTF/luxirr.ttf'
p553
sg21
g22
sbag7
(g8
g9
NtRp554
(dp555
g12
g41
sg14
S'STIXGeneral'
p556
sg16
I400
sg17
g13
sg18
g13
sg19
S'/Library/Fonts/STIXGeneralItalic.otf'
p557
sg21
g22
sbag7
(g8
g9
NtRp558
(dp559
g12
g13
sg14
S'Serto Urhoy'
p560
sg16
I400
sg17
g13
sg18
g13
sg19
S'/usr/X11/lib/X11/fonts/OTF/SyrCOMUrhoy.otf'
p561
sg21
g22
sbag7
(g8
g9
NtRp562
(dp563
g12
g41
sg14
S'Myriad Pro'
p564
sg16
I700
sg17
g172
sg18
g13
sg19
S'/Library/Fonts/MyriadPro-BoldCondIt.otf'
p565
sg21
g22
sbag7
(g8
g9
NtRp566
(dp567
g12
g13
sg14
S'STIXSizeFourSym'
p568
sg16
I400
sg17
g13
sg18
g13
sg19
S'/Library/Fonts/STIXSizFourSymReg.otf'
p569
sg21
g22
sbag7
(g8
g9
NtRp570
(dp571
g12
g13
sg14
S'Adobe Kaiti Std'
p572
sg16
I400
sg17
g13
sg18
g13
sg19
S'/Library/Fonts/AdobeKaitiStd-Regular.otf'
p573
sg21
g22
sbag7
(g8
g9
NtRp574
(dp575
g12
g13
sg14
S'Microsoft Yi Baiti'
p576
sg16
I400
sg17
g13
sg18
g13
sg19
S'/Library/Fonts/Microsoft/msyi.ttf'
p577
sg21
g22
sbag7
(g8
g9
NtRp578
(dp579
g12
g13
sg14
S'Nueva Std'
p580
sg16
I400
sg17
g172
sg18
g13
sg19
S'/Library/Fonts/NuevaStd-Cond.otf'
p581
sg21
g22
sbag7
(g8
g9
NtRp582
(dp583
g12
g13
sg14
S'Wingdings 3'
p584
sg16
I400
sg17
g13
sg18
g13
sg19
S'/Library/Fonts/Wingdings 3.ttf'
p585
sg21
g22
sbag7
(g8
g9
NtRp586
(dp587
g12
g13
sg14
S'Consolas'
p588
sg16
I400
sg17
g13
sg18
g13
sg19
S'/Library/Fonts/Microsoft/Consolas.ttf'
p589
sg21
g22
sbag7
(g8
g9
NtRp590
(dp591
g12
g41
sg14
S'Perpetua'
p592
sg16
I400
sg17
g13
sg18
g13
sg19
S'/Library/Fonts/Microsoft/Perpetua Italic.ttf'
p593
sg21
g22
sbag7
(g8
g9
NtRp594
(dp595
g12
g13
sg14
S'Comic Sans MS'
p596
sg16
I400
sg17
g13
sg18
g13
sg19
S'/Library/Fonts/Comic Sans MS.ttf'
p597
sg21
g22
sbag7
(g8
g9
NtRp598
(dp599
g12
g13
sg14
S'Kozuka Mincho Pr6N'
p600
sg16
I400
sg17
g13
sg18
g13
sg19
S'/Library/Fonts/KozMinPr6N-Light.otf'
p601
sg21
g22
sbag7
(g8
g9
NtRp602
(dp603
g12
g13
sg14
S'PMingLiU'
p604
sg16
I400
sg17
g13
sg18
g13
sg19
S'/Library/Fonts/Microsoft/PMingLiU.ttf'
p605
sg21
g22
sbag7
(g8
g9
NtRp606
(dp607
g12
g13
sg14
S'Arial'
p608
sg16
I400
sg17
g13
sg18
g13
sg19
S'/Library/Fonts/Microsoft/Arial.ttf'
p609
sg21
g22
sbag7
(g8
g9
NtRp610
(dp611
g12
g13
sg14
S'STIXSizeFourSym'
p612
sg16
I700
sg17
g13
sg18
g13
sg19
S'/Library/Fonts/STIXSizFourSymBol.otf'
p613
sg21
g22
sbag7
(g8
g9
NtRp614
(dp615
g12
g13
sg14
S'Kozuka Gothic Pr6N'
p616
sg16
I400
sg17
g13
sg18
g13
sg19
S'/Library/Fonts/KozGoPr6N-Medium.otf'
p617
sg21
g22
sbag7
(g8
g9
NtRp618
(dp619
g12
g13
sg14
S'Marlett'
p620
sg16
I400
sg17
g13
sg18
g13
sg19
S'/Library/Fonts/Microsoft/Marlett.ttf'
p621
sg21
g22
sbag7
(g8
g9
NtRp622
(dp623
g12
g13
sg14
S'Calibri'
p624
sg16
I700
sg17
g13
sg18
g13
sg19
S'/Library/Fonts/Microsoft/Calibri Bold.ttf'
p625
sg21
g22
sbag7
(g8
g9
NtRp626
(dp627
g12
g13
sg14
S'Yuppy SC'
p628
sg16
I400
sg17
g13
sg18
g13
sg19
S'/Library/Fonts/YuppySC-Regular.otf'
p629
sg21
g22
sbag7
(g8
g9
NtRp630
(dp631
g12
g41
sg14
S'Georgia'
p632
sg16
I400
sg17
g13
sg18
g13
sg19
S'/Library/Fonts/Georgia Italic.ttf'
p633
sg21
g22
sbag7
(g8
g9
NtRp634
(dp635
g12
g13
sg14
S'Wingdings'
p636
sg16
I400
sg17
g13
sg18
g13
sg19
S'/Library/Fonts/Wingdings.ttf'
p637
sg21
g22
sbag7
(g8
g9
NtRp638
(dp639
g12
g13
sg14
S'Impact'
p640
sg16
I400
sg17
g13
sg18
g13
sg19
S'/Library/Fonts/Impact.ttf'
p641
sg21
g22
sbag7
(g8
g9
NtRp642
(dp643
g12
g13
sg14
S'Tahoma'
p644
sg16
I700
sg17
g13
sg18
g13
sg19
S'/Library/Fonts/Tahoma Bold.ttf'
p645
sg21
g22
sbag7
(g8
g9
NtRp646
(dp647
g12
g41
sg14
S'Georgia'
p648
sg16
I700
sg17
g13
sg18
g13
sg19
S'/Library/Fonts/Georgia Bold Italic.ttf'
p649
sg21
g22
sbag7
(g8
g9
NtRp650
(dp651
g12
g13
sg14
S'Tekton Pro'
p652
sg16
I700
sg17
g172
sg18
g13
sg19
S'/Library/Fonts/TektonPro-BoldCond.otf'
p653
sg21
g22
sbag7
(g8
g9
NtRp654
(dp655
g12
g41
sg14
S'Myriad Arabic'
p656
sg16
I700
sg17
g13
sg18
g13
sg19
S'/Library/Fonts/MyriadArabic-BoldIt.otf'
p657
sg21
g22
sbag7
(g8
g9
NtRp658
(dp659
g12
g46
sg14
S'Luxi Mono'
p660
sg16
I700
sg17
g13
sg18
g13
sg19
S'/usr/X11/lib/X11/fonts/TTF/luximbi.ttf'
p661
sg21
g22
sbag7
(g8
g9
NtRp662
(dp663
g12
g13
sg14
S'Hoefler Text'
p664
sg16
I400
sg17
g13
sg18
g13
sg19
S'/Library/Fonts/Hoefler Text Ornaments.ttf'
p665
sg21
g22
sbag7
(g8
g9
NtRp666
(dp667
g12
g41
sg14
S'Chaparral Pro'
p668
sg16
I200
sg17
g13
sg18
g13
sg19
S'/Library/Fonts/ChaparralPro-LightIt.otf'
p669
sg21
g22
sbag7
(g8
g9
NtRp670
(dp671
g12
g41
sg14
S'Adobe Arabic'
p672
sg16
I400
sg17
g13
sg18
g13
sg19
S'/Library/Fonts/AdobeArabic-Italic.otf'
p673
sg21
g22
sbag7
(g8
g9
NtRp674
(dp675
g12
g13
sg14
S'Hiragino Mincho ProN'
p676
sg16
I700
sg17
g13
sg18
g13
sg19
S'/System/Library/Fonts/\xe3\x83\x92\xe3\x83\xa9\xe3\x82\xad\xe3\x82\x99\xe3\x83\x8e\xe6\x98\x8e\xe6\x9c\x9d ProN W6.otf'
p677
sg21
g22
sbag7
(g8
g9
NtRp678
(dp679
g12
g13
sg14
S'Rosewood Std'
p680
sg16
I400
sg17
g13
sg18
g13
sg19
S'/Library/Fonts/RosewoodStd-Regular.otf'
p681
sg21
g22
sbag7
(g8
g9
NtRp682
(dp683
g12
g13
sg14
S'Adobe Arabic'
p684
sg16
I700
sg17
g13
sg18
g13
sg19
S'/Library/Fonts/AdobeArabic-Bold.otf'
p685
sg21
g22
sbag7
(g8
g9
NtRp686
(dp687
g12
g13
sg14
S'PilGi'
p688
sg16
I400
sg17
g13
sg18
g13
sg19
S'/Library/Fonts/Pilgiche.ttf'
p689
sg21
g22
sbag7
(g8
g9
NtRp690
(dp691
g12
g13
sg14
S'Gill Sans MT'
p692
sg16
I400
sg17
g13
sg18
g13
sg19
S'/Library/Fonts/Microsoft/Gill Sans MT.ttf'
p693
sg21
g22
sbag7
(g8
g9
NtRp694
(dp695
g12
g13
sg14
S'Myriad Arabic'
p696
sg16
I400
sg17
g13
sg18
g13
sg19
S'/Library/Fonts/MyriadArabic-Regular.otf'
p697
sg21
g22
sbag7
(g8
g9
NtRp698
(dp699
g12
g13
sg14
S'Constantia'
p700
sg16
I400
sg17
g13
sg18
g13
sg19
S'/Library/Fonts/Microsoft/Constantia.ttf'
p701
sg21
g22
sbag7
(g8
g9
NtRp702
(dp703
g12
g41
sg14
S'Verdana'
p704
sg16
I400
sg17
g13
sg18
g13
sg19
S'/Library/Fonts/Microsoft/Verdana Italic.ttf'
p705
sg21
g22
sbag7
(g8
g9
NtRp706
(dp707
g12
g13
sg14
S'YuGothic'
p708
sg16
I400
sg17
g13
sg18
g13
sg19
S'/Library/Fonts/Yu Gothic Medium.otf'
p709
sg21
g22
sbag7
(g8
g9
NtRp710
(dp711
g12
g13
sg14
S'Gujarati MT'
p712
sg16
I700
sg17
g13
sg18
g13
sg19
S'/Library/Fonts/GujaratiMTBold.ttf'
p713
sg21
g22
sbag7
(g8
g9
NtRp714
(dp715
g12
g41
sg14
S'Letter Gothic Std'
p716
sg16
I700
sg17
g13
sg18
g13
sg19
S'/Library/Fonts/LetterGothicStd-BoldSlanted.otf'
p717
sg21
g22
sbag7
(g8
g9
NtRp718
(dp719
g12
g13
sg14
S'Luxi Mono'
p720
sg16
I700
sg17
g13
sg18
g13
sg19
S'/usr/X11/lib/X11/fonts/TTF/luximb.ttf'
p721
sg21
g22
sbag7
(g8
g9
NtRp722
(dp723
g12
g41
sg14
S'Nueva Std'
p724
sg16
I400
sg17
g172
sg18
g13
sg19
S'/Library/Fonts/NuevaStd-CondItalic.otf'
p725
sg21
g22
sbag7
(g8
g9
NtRp726
(dp727
g12
g41
sg14
S'Arial'
p728
sg16
I400
sg17
g13
sg18
g13
sg19
S'/Library/Fonts/Microsoft/Arial Italic.ttf'
p729
sg21
g22
sbag7
(g8
g9
NtRp730
(dp731
g12
g46
sg14
S'Luxi Sans'
p732
sg16
I400
sg17
g13
sg18
g13
sg19
S'/usr/X11/lib/X11/fonts/TTF/luxisri.ttf'
p733
sg21
g22
sbag7
(g8
g9
NtRp734
(dp735
g12
g13
sg14
S'Zapf Dingbats'
p736
sg16
I400
sg17
g13
sg18
g13
sg19
S'/System/Library/Fonts/ZapfDingbats.ttf'
p737
sg21
g22
sbag7
(g8
g9
NtRp738
(dp739
g12
g41
sg14
S'Calibri'
p740
sg16
I700
sg17
g13
sg18
g13
sg19
S'/Library/Fonts/Microsoft/Calibri Bold Italic.ttf'
p741
sg21
g22
sbag7
(g8
g9
NtRp742
(dp743
g12
g13
sg14
S'Apple LiSung'
p744
sg16
I200
sg17
g13
sg18
g13
sg19
S'/Library/Fonts/Apple LiSung Light.ttf'
p745
sg21
g22
sbag7
(g8
g9
NtRp746
(dp747
g12
g41
sg14
S'Corbel'
p748
sg16
I700
sg17
g13
sg18
g13
sg19
S'/Library/Fonts/Microsoft/Corbel Bold Italic.ttf'
p749
sg21
g22
sbag7
(g8
g9
NtRp750
(dp751
g12
g13
sg14
S'Adobe Garamond Pro'
p752
sg16
I700
sg17
g13
sg18
g13
sg19
S'/Library/Fonts/AGaramondPro-Bold.otf'
p753
sg21
g22
sbag7
(g8
g9
NtRp754
(dp755
g12
g13
sg14
S'Stencil Std'
p756
sg16
I700
sg17
g13
sg18
g13
sg19
S'/Library/Fonts/StencilStd.otf'
p757
sg21
g22
sbag7
(g8
g9
NtRp758
(dp759
g12
g13
sg14
S'Myriad Pro'
p760
sg16
I400
sg17
g13
sg18
g13
sg19
S'/Library/Fonts/MyriadPro-Regular.otf'
p761
sg21
g22
sbag7
(g8
g9
NtRp762
(dp763
g12
g13
sg14
S'Myriad Pro'
p764
sg16
I400
sg17
g172
sg18
g13
sg19
S'/Library/Fonts/MyriadPro-Cond.otf'
p765
sg21
g22
sbag7
(g8
g9
NtRp766
(dp767
g12
g41
sg14
S'Ubuntu'
p768
sg16
I400
sg17
g13
sg18
g13
sg19
S'/Users/peitalin/Library/Fonts/Ubuntu-RI.ttf'
p769
sg21
g22
sbag7
(g8
g9
NtRp770
(dp771
g12
g41
sg14
S'Trebuchet MS'
p772
sg16
I700
sg17
g13
sg18
g13
sg19
S'/Library/Fonts/Trebuchet MS Bold Italic.ttf'
p773
sg21
g22
sbag7
(g8
g9
NtRp774
(dp775
g12
g13
sg14
S'STIXIntegralsSm'
p776
sg16
I700
sg17
g13
sg18
g13
sg19
S'/Library/Fonts/STIXIntSmBol.otf'
p777
sg21
g22
sbag7
(g8
g9
NtRp778
(dp779
g12
g13
sg14
S'Adobe Ming Std'
p780
sg16
I400
sg17
g13
sg18
g13
sg19
S'/Library/Fonts/AdobeMingStd-Light.otf'
p781
sg21
g22
sbag7
(g8
g9
NtRp782
(dp783
g12
g13
sg14
S'Raleway'
p784
sg16
I200
sg17
g13
sg18
g13
sg19
S'/Users/peitalin/Library/Fonts/Raleway-ExtraLight.ttf'
p785
sg21
g22
sbag7
(g8
g9
NtRp786
(dp787
g12
g13
sg14
S'Meiryo'
p788
sg16
I700
sg17
g13
sg18
g13
sg19
S'/Library/Fonts/Microsoft/Meiryo Bold.ttf'
p789
sg21
g22
sbag7
(g8
g9
NtRp790
(dp791
g12
g13
sg14
S'Cooper Std'
p792
sg16
I900
sg17
g13
sg18
g13
sg19
S'/Library/Fonts/CooperBlackStd.otf'
p793
sg21
g22
sbag7
(g8
g9
NtRp794
(dp795
g12
g13
sg14
S'Kozuka Gothic Pro'
p796
sg16
I400
sg17
g13
sg18
g13
sg19
S'/Library/Fonts/KozGoPro-ExtraLight.otf'
p797
sg21
g22
sbag7
(g8
g9
NtRp798
(dp799
g12
g13
sg14
S'Anonymous Pro for Powerline'
p800
sg16
I400
sg17
g13
sg18
g13
sg19
S'/Users/peitalin/Library/Fonts/Anonymice Powerline.ttf'
p801
sg21
g22
sbag7
(g8
g9
NtRp802
(dp803
g12
g41
sg14
S'Tw Cen MT'
p804
sg16
I400
sg17
g13
sg18
g13
sg19
S'/Library/Fonts/Microsoft/Tw Cen MT Italic.ttf'
p805
sg21
g22
sbag7
(g8
g9
NtRp806
(dp807
g12
g13
sg14
S'Bookshelf Symbol 7'
p808
sg16
I400
sg17
g13
sg18
g13
sg19
S'/Library/Fonts/Microsoft/Bookshelf Symbol 7.ttf'
p809
sg21
g22
sbag7
(g8
g9
NtRp810
(dp811
g12
g41
sg14
S'Chaparral Pro'
p812
sg16
I700
sg17
g13
sg18
g13
sg19
S'/Library/Fonts/ChaparralPro-BoldIt.otf'
p813
sg21
g22
sbag7
(g8
g9
NtRp814
(dp815
g12
g13
sg14
S'Caviar Dreams'
p816
sg16
I400
sg17
g13
sg18
g13
sg19
S'/Users/peitalin/Library/Fonts/CaviarDreams.ttf'
p817
sg21
g22
sbag7
(g8
g9
NtRp818
(dp819
g12
g13
sg14
S'Ubuntu'
p820
sg16
I500
sg17
g13
sg18
g13
sg19
S'/Users/peitalin/Library/Fonts/Ubuntu-M.ttf'
p821
sg21
g22
sbag7
(g8
g9
NtRp822
(dp823
g12
g13
sg14
S'Consolas'
p824
sg16
I700
sg17
g13
sg18
g13
sg19
S'/Library/Fonts/Microsoft/Consolas Bold.ttf'
p825
sg21
g22
sbag7
(g8
g9
NtRp826
(dp827
g12
g13
sg14
S'Andes'
p828
sg16
I400
sg17
g13
sg18
g13
sg19
S'/Users/peitalin/Library/Fonts/Andes.ttf'
p829
sg21
g22
sbag7
(g8
g9
NtRp830
(dp831
g12
g13
sg14
S'Adobe Song Std'
p832
sg16
I400
sg17
g13
sg18
g13
sg19
S'/Library/Fonts/AdobeSongStd-Light.otf'
p833
sg21
g22
sbag7
(g8
g9
NtRp834
(dp835
g12
g13
sg14
S'Hiragino Sans GB'
p836
sg16
I400
sg17
g13
sg18
g13
sg19
S'/Library/Fonts/Hiragino Sans GB W3.otf'
p837
sg21
g22
sbag7
(g8
g9
NtRp838
(dp839
g12
g13
sg14
S'Luxi Serif'
p840
sg16
I700
sg17
g13
sg18
g13
sg19
S'/usr/X11R6/lib/X11/fonts/TTF/luxirb.ttf'
p841
sg21
g22
sbag7
(g8
g9
NtRp842
(dp843
g12
g13
sg14
S'Raleway'
p844
sg16
I400
sg17
g13
sg18
g13
sg19
S'/Users/peitalin/Library/Fonts/Raleway-Regular.ttf'
p845
sg21
g22
sbag7
(g8
g9
NtRp846
(dp847
g12
g13
sg14
S'Liberation Mono for Powerline'
p848
sg16
I400
sg17
g13
sg18
g13
sg19
S'/Users/peitalin/Library/Fonts/Literation Mono Powerline.ttf'
p849
sg21
g22
sbag7
(g8
g9
NtRp850
(dp851
g12
g41
sg14
S'Adobe Hebrew'
p852
sg16
I700
sg17
g13
sg18
g13
sg19
S'/Library/Fonts/AdobeHebrew-BoldItalic.otf'
p853
sg21
g22
sbag7
(g8
g9
NtRp854
(dp855
g12
g13
sg14
S'Ubuntu Mono'
p856
sg16
I700
sg17
g13
sg18
g13
sg19
S'/Users/peitalin/Library/Fonts/UbuntuMono-B.ttf'
p857
sg21
g22
sbag7
(g8
g9
NtRp858
(dp859
g12
g13
sg14
S'Luxi Sans'
p860
sg16
I700
sg17
g13
sg18
g13
sg19
S'/usr/X11/lib/X11/fonts/TTF/luxisb.ttf'
p861
sg21
g22
sbag7
(g8
g9
NtRp862
(dp863
g12
g13
sg14
S'STIXNonUnicode'
p864
sg16
I400
sg17
g13
sg18
g13
sg19
S'/Library/Fonts/STIXNonUni.otf'
p865
sg21
g22
sbag7
(g8
g9
NtRp866
(dp867
g12
g13
sg14
S'Trebuchet MS'
p868
sg16
I700
sg17
g13
sg18
g13
sg19
S'/Library/Fonts/Trebuchet MS Bold.ttf'
p869
sg21
g22
sbag7
(g8
g9
NtRp870
(dp871
g12
g13
sg14
S'LiSong Pro'
p872
sg16
I400
sg17
g13
sg18
g13
sg19
S'/Library/Fonts/\xe5\x84\xb7\xe5\xae\x8b Pro.ttf'
p873
sg21
g22
sbag7
(g8
g9
NtRp874
(dp875
g12
g41
sg14
S'STIXNonUnicode'
p876
sg16
I700
sg17
g13
sg18
g13
sg19
S'/Library/Fonts/STIXNonUniBolIta.otf'
p877
sg21
g22
sbag7
(g8
g9
NtRp878
(dp879
g12
g13
sg14
S'Adobe Devanagari'
p880
sg16
I700
sg17
g13
sg18
g13
sg19
S'/Library/Fonts/AdobeDevanagari-Bold.otf'
p881
sg21
g22
sbag7
(g8
g9
NtRp882
(dp883
g12
g13
sg14
S'Brush Script Std'
p884
sg16
I500
sg17
g13
sg18
g13
sg19
S'/Library/Fonts/BrushScriptStd.otf'
p885
sg21
g22
sbag7
(g8
g9
NtRp886
(dp887
g12
g13
sg14
S'Wawati SC'
p888
sg16
I400
sg17
g13
sg18
g13
sg19
S'/Library/Fonts/WawaSC-Regular.otf'
p889
sg21
g22
sbag7
(g8
g9
NtRp890
(dp891
g12
g13
sg14
S'SimHei'
p892
sg16
I400
sg17
g13
sg18
g13
sg19
S'/Library/Fonts/Microsoft/SimHei.ttf'
p893
sg21
g22
sbag7
(g8
g9
NtRp894
(dp895
g12
g46
sg14
S'Luxi Serif'
p896
sg16
I700
sg17
g13
sg18
g13
sg19
S'/usr/X11R6/lib/X11/fonts/TTF/luxirbi.ttf'
p897
sg21
g22
sbag7
(g8
g9
NtRp898
(dp899
g12
g13
sg14
S'Apple SD Gothic Neo'
p900
sg16
I200
sg17
g13
sg18
g13
sg19
S'/Library/Fonts/AppleSDGothicNeo-Light.otf'
p901
sg21
g22
sbag7
(g8
g9
NtRp902
(dp903
g12
g13
sg14
S'Meslo LG L DZ for Powerline'
p904
sg16
I400
sg17
g13
sg18
g13
sg19
S'/Users/peitalin/Library/Fonts/Meslo LG L DZ Regular for Powerline.otf'
p905
sg21
g22
sbag7
(g8
g9
NtRp906
(dp907
g12
g13
sg14
S'Adobe Caslon Pro'
p908
sg16
I700
sg17
g13
sg18
g13
sg19
S'/Library/Fonts/ACaslonPro-Bold.otf'
p909
sg21
g22
sbag7
(g8
g9
NtRp910
(dp911
g12
g13
sg14
S'Inconsolata-dz for Powerline'
p912
sg16
I400
sg17
g13
sg18
g13
sg19
S'/Users/peitalin/Library/Fonts/Inconsolata-dz for Powerline.otf'
p913
sg21
g22
sbag7
(g8
g9
NtRp914
(dp915
g12
g13
sg14
S'STIXIntegralsSm'
p916
sg16
I400
sg17
g13
sg18
g13
sg19
S'/Library/Fonts/STIXIntSmReg.otf'
p917
sg21
g22
sbag7
(g8
g9
NtRp918
(dp919
g12
g13
sg14
S'Myriad Pro'
p920
sg16
I700
sg17
g172
sg18
g13
sg19
S'/Library/Fonts/MyriadPro-BoldCond.otf'
p921
sg21
g22
sbag7
(g8
g9
NtRp922
(dp923
g12
g41
sg14
S'Adobe Caslon Pro'
p924
sg16
I400
sg17
g13
sg18
g13
sg19
S'/Library/Fonts/ACaslonPro-Italic.otf'
p925
sg21
g22
sbag7
(g8
g9
NtRp926
(dp927
g12
g13
sg14
S'Georgia'
p928
sg16
I700
sg17
g13
sg18
g13
sg19
S'/Library/Fonts/Georgia Bold.ttf'
p929
sg21
g22
sbag7
(g8
g9
NtRp930
(dp931
g12
g13
sg14
S'Chalkduster'
p932
sg16
I400
sg17
g13
sg18
g13
sg19
S'/Library/Fonts/Chalkduster.ttf'
p933
sg21
g22
sbag7
(g8
g9
NtRp934
(dp935
g12
g13
sg14
S'Estrangelo Antioch'
p936
sg16
I400
sg17
g13
sg18
g13
sg19
S'/usr/X11/lib/X11/fonts/OTF/SyrCOMAntioch.otf'
p937
sg21
g22
sbag7
(g8
g9
NtRp938
(dp939
g12
g13
sg14
S'Weibei TC'
p940
sg16
I700
sg17
g13
sg18
g13
sg19
S'/Library/Fonts/WeibeiTC-Bold.otf'
p941
sg21
g22
sbag7
(g8
g9
NtRp942
(dp943
g12
g41
sg14
S'Linux Biolinum O'
p944
sg16
I400
sg17
g13
sg18
g13
sg19
S'/Users/peitalin/Library/Fonts/LinBiolinum_RI.otf'
p945
sg21
g22
sbag7
(g8
g9
NtRp946
(dp947
g12
g13
sg14
S'Serto Batnan'
p948
sg16
I700
sg17
g13
sg18
g13
sg19
S'/usr/X11/lib/X11/fonts/OTF/SyrCOMBatnanBold.otf'
p949
sg21
g22
sbag7
(g8
g9
NtRp950
(dp951
g12
g41
sg14
S'Minion Pro'
p952
sg16
I700
sg17
g13
sg18
g13
sg19
S'/Library/Fonts/MinionPro-BoldIt.otf'
p953
sg21
g22
sbag7
(g8
g9
NtRp954
(dp955
g12
g13
sg14
S'Serto Jerusalem'
p956
sg16
I700
sg17
g13
sg18
g13
sg19
S'/usr/X11/lib/X11/fonts/OTF/SyrCOMJerusalemBold.otf'
p957
sg21
g22
sbag7
(g8
g9
NtRp958
(dp959
g12
g13
sg14
S'Adobe Caslon Pro'
p960
sg16
I400
sg17
g13
sg18
g13
sg19
S'/Library/Fonts/ACaslonPro-Regular.otf'
p961
sg21
g22
sbag7
(g8
g9
NtRp962
(dp963
g12
g13
sg14
S'STIXIntegralsUp'
p964
sg16
I400
sg17
g13
sg18
g13
sg19
S'/Library/Fonts/STIXIntUpReg.otf'
p965
sg21
g22
sbag7
(g8
g9
NtRp966
(dp967
g12
g13
sg14
S'Mesquite Std'
p968
sg16
I500
sg17
g13
sg18
g13
sg19
S'/Library/Fonts/MesquiteStd.otf'
p969
sg21
g22
sbag7
(g8
g9
NtRp970
(dp971
g12
g13
sg14
S'Big Caslon'
p972
sg16
I500
sg17
g13
sg18
g13
sg19
S'/Library/Fonts/BigCaslon.ttf'
p973
sg21
g22
sbag7
(g8
g9
NtRp974
(dp975
g12
g41
sg14
S'Adobe Hebrew'
p976
sg16
I400
sg17
g13
sg18
g13
sg19
S'/Library/Fonts/AdobeHebrew-Italic.otf'
p977
sg21
g22
sbag7
(g8
g9
NtRp978
(dp979
g12
g13
sg14
S'Ayuthaya'
p980
sg16
I400
sg17
g13
sg18
g13
sg19
S'/Library/Fonts/Ayuthaya.ttf'
p981
sg21
g22
sbag7
(g8
g9
NtRp982
(dp983
g12
g13
sg14
S'Orator Std'
p984
sg16
I500
sg17
g13
sg18
g13
sg19
S'/Library/Fonts/OratorStd.otf'
p985
sg21
g22
sbag7
(g8
g9
NtRp986
(dp987
g12
g13
sg14
S'Blackoak Std'
p988
sg16
I900
sg17
g13
sg18
g13
sg19
S'/Library/Fonts/BlackoakStd.otf'
p989
sg21
g22
sbag7
(g8
g9
NtRp990
(dp991
g12
g13
sg14
S'Hiragino Kaku Gothic Pro'
p992
sg16
I700
sg17
g13
sg18
g13
sg19
S'/Library/Fonts/\xe3\x83\x92\xe3\x83\xa9\xe3\x82\xad\xe3\x82\x99\xe3\x83\x8e\xe8\xa7\x92\xe3\x82\xb3\xe3\x82\x99 Pro W6.otf'
p993
sg21
g22
sbag7
(g8
g9
NtRp994
(dp995
g12
g41
sg14
S'Minion Pro'
p996
sg16
I400
sg17
g13
sg18
g13
sg19
S'/Library/Fonts/MinionPro-It.otf'
p997
sg21
g22
sbag7
(g8
g9
NtRp998
(dp999
g12
g13
sg14
S'Minion Pro'
p1000
sg16
I700
sg17
g13
sg18
g13
sg19
S'/Library/Fonts/MinionPro-Bold.otf'
p1001
sg21
g22
sbag7
(g8
g9
NtRp1002
(dp1003
g12
g13
sg14
S'YuMincho'
p1004
sg16
I400
sg17
g13
sg18
g13
sg19
S'/Library/Fonts/Yu Mincho Medium.otf'
p1005
sg21
g22
sbag7
(g8
g9
NtRp1006
(dp1007
g12
g13
sg14
S'Linux Biolinum'
p1008
sg16
I400
sg17
g13
sg18
g13
sg19
S'/Users/peitalin/Library/Fonts/LinBiolinum_R.ttf'
p1009
sg21
g22
sbag7
(g8
g9
NtRp1010
(dp1011
g12
g13
sg14
S'Inconsolata for Powerline'
p1012
sg16
I400
sg17
g13
sg18
g13
sg19
S'/Users/peitalin/Library/Fonts/Inconsolata for Powerline.otf'
p1013
sg21
g22
sbag7
(g8
g9
NtRp1014
(dp1015
g12
g41
sg14
S'Minion Pro'
p1016
sg16
I700
sg17
g172
sg18
g13
sg19
S'/Library/Fonts/MinionPro-BoldCnIt.otf'
p1017
sg21
g22
sbag7
(g8
g9
NtRp1018
(dp1019
g12
g13
sg14
S'Andale Mono'
p1020
sg16
I400
sg17
g13
sg18
g13
sg19
S'/Library/Fonts/Andale Mono.ttf'
p1021
sg21
g22
sbag7
(g8
g9
NtRp1022
(dp1023
g12
g41
sg14
S'Consolas'
p1024
sg16
I400
sg17
g13
sg18
g13
sg19
S'/Library/Fonts/Microsoft/Consolas Italic.ttf'
p1025
sg21
g22
sbag7
(g8
g9
NtRp1026
(dp1027
g12
g13
sg14
S'Letter Gothic Std'
p1028
sg16
I700
sg17
g13
sg18
g13
sg19
S'/Library/Fonts/LetterGothicStd-Bold.otf'
p1029
sg21
g22
sbag7
(g8
g9
NtRp1030
(dp1031
g12
g13
sg14
S'Silom'
p1032
sg16
I400
sg17
g13
sg18
g13
sg19
S'/Library/Fonts/Silom.ttf'
p1033
sg21
g22
sbag7
(g8
g9
NtRp1034
(dp1035
g12
g46
sg14
S'Mshtakan'
p1036
sg16
I700
sg17
g13
sg18
g13
sg19
S'/Library/Fonts/MshtakanBoldOblique.ttf'
p1037
sg21
g22
sbag7
(g8
g9
NtRp1038
(dp1039
g12
g13
sg14
S'Source Code Pro for Powerline'
p1040
sg16
I200
sg17
g13
sg18
g13
sg19
S'/Users/peitalin/Library/Fonts/Sauce Code Powerline ExtraLight.otf'
p1041
sg21
g22
sbag7
(g8
g9
NtRp1042
(dp1043
g12
g13
sg14
S'Luxi Mono'
p1044
sg16
I400
sg17
g13
sg18
g13
sg19
S'/usr/X11/lib/X11/fonts/TTF/luximr.ttf'
p1045
sg21
g22
sbag7
(g8
g9
NtRp1046
(dp1047
g12
g13
sg14
S'Meslo LG M for Powerline'
p1048
sg16
I400
sg17
g13
sg18
g13
sg19
S'/Users/peitalin/Library/Fonts/Meslo LG M Regular for Powerline.otf'
p1049
sg21
g22
sbag7
(g8
g9
NtRp1050
(dp1051
g12
g41
sg14
S'Calibri'
p1052
sg16
I400
sg17
g13
sg18
g13
sg19
S'/Library/Fonts/Microsoft/Calibri Italic.ttf'
p1053
sg21
g22
sbag7
(g8
g9
NtRp1054
(dp1055
g12
g13
sg14
S'Candara'
p1056
sg16
I400
sg17
g13
sg18
g13
sg19
S'/Library/Fonts/Microsoft/Candara.ttf'
p1057
sg21
g22
sbag7
(g8
g9
NtRp1058
(dp1059
g12
g13
sg14
S'MingLiU'
p1060
sg16
I400
sg17
g13
sg18
g13
sg19
S'/Library/Fonts/Microsoft/MingLiU.ttf'
p1061
sg21
g22
sbag7
(g8
g9
NtRp1062
(dp1063
g12
g13
sg14
S'Gulim'
p1064
sg16
I400
sg17
g13
sg18
g13
sg19
S'/Library/Fonts/Microsoft/Gulim.ttf'
p1065
sg21
g22
sbag7
(g8
g9
NtRp1066
(dp1067
g12
g13
sg14
S'Lao Sangam MN'
p1068
sg16
I400
sg17
g13
sg18
g13
sg19
S'/Library/Fonts/Lao Sangam MN.ttf'
p1069
sg21
g22
sbag7
(g8
g9
NtRp1070
(dp1071
g12
g13
sg14
S'Goha-Tibeb Zemen'
p1072
sg16
I400
sg17
g13
sg18
g13
sg19
S'/usr/X11R6/lib/X11/fonts/TTF/GohaTibebZemen.ttf'
p1073
sg21
g22
sbag7
(g8
g9
NtRp1074
(dp1075
g12
g13
sg14
S'KufiStandardGK'
p1076
sg16
I400
sg17
g13
sg18
g13
sg19
S'/Library/Fonts/KufiStandardGK.ttf'
p1077
sg21
g22
sbag7
(g8
g9
NtRp1078
(dp1079
g12
g13
sg14
S'Hei'
p1080
sg16
I400
sg17
g13
sg18
g13
sg19
S'/Library/Fonts/Hei.ttf'
p1081
sg21
g22
sbag7
(g8
g9
NtRp1082
(dp1083
g12
g13
sg14
S'Anonymous Pro'
p1084
sg16
I400
sg17
g13
sg18
g13
sg19
S'/Users/peitalin/Library/Fonts/Anonymous_Pro.ttf'
p1085
sg21
g22
sbag7
(g8
g9
NtRp1086
(dp1087
g12
g41
sg14
S'Cambria'
p1088
sg16
I700
sg17
g13
sg18
g13
sg19
S'/Library/Fonts/Microsoft/Cambria Bold Italic.ttf'
p1089
sg21
g22
sbag7
(g8
g9
NtRp1090
(dp1091
g12
g13
sg14
S'Gabriola'
p1092
sg16
I400
sg17
g13
sg18
g13
sg19
S'/Library/Fonts/Microsoft/Gabriola.ttf'
p1093
sg21
g22
sbag7
(g8
g9
NtRp1094
(dp1095
g12
g13
sg14
S'Hiragino Mincho ProN'
p1096
sg16
I400
sg17
g13
sg18
g13
sg19
S'/System/Library/Fonts/\xe3\x83\x92\xe3\x83\xa9\xe3\x82\xad\xe3\x82\x99\xe3\x83\x8e\xe6\x98\x8e\xe6\x9c\x9d ProN W3.otf'
p1097
sg21
g22
sbag7
(g8
g9
NtRp1098
(dp1099
g12
g41
sg14
S'Adobe Caslon Pro'
p1100
sg16
I700
sg17
g13
sg18
g13
sg19
S'/Library/Fonts/ACaslonPro-BoldItalic.otf'
p1101
sg21
g22
sbag7
(g8
g9
NtRp1102
(dp1103
g12
g41
sg14
S'Adobe Caslon Pro'
p1104
sg16
I700
sg17
g13
sg18
g13
sg19
S'/Library/Fonts/ACaslonPro-SemiboldItalic.otf'
p1105
sg21
g22
sbag7
(g8
g9
NtRp1106
(dp1107
g12
g13
sg14
S'Raleway'
p1108
sg16
I700
sg17
g13
sg18
g13
sg19
S'/Users/peitalin/Library/Fonts/Raleway-SemiBold.ttf'
p1109
sg21
g22
sbag7
(g8
g9
NtRp1110
(dp1111
g12
g46
sg14
S'DejaVu Sans Mono for Powerline'
p1112
sg16
I700
sg17
g13
sg18
g13
sg19
S'/Users/peitalin/Library/Fonts/DejaVu Sans Mono Bold Oblique for Powerline.ttf'
p1113
sg21
g22
sbag7
(g8
g9
NtRp1114
(dp1115
g12
g13
sg14
S'Raleway'
p1116
sg16
I200
sg17
g13
sg18
g13
sg19
S'/Users/peitalin/Library/Fonts/Raleway-Light.ttf'
p1117
sg21
g22
sbag7
(g8
g9
NtRp1118
(dp1119
g12
g41
sg14
S'Caviar Dreams'
p1120
sg16
I400
sg17
g13
sg18
g13
sg19
S'/Users/peitalin/Library/Fonts/CaviarDreams_Italic.ttf'
p1121
sg21
g22
sbag7
(g8
g9
NtRp1122
(dp1123
g12
g41
sg14
S'Anonymous Pro'
p1124
sg16
I400
sg17
g13
sg18
g13
sg19
S'/Users/peitalin/Library/Fonts/Anonymous_Pro_I.ttf'
p1125
sg21
g22
sbag7
(g8
g9
NtRp1126
(dp1127
g12
g13
sg14
S'Adobe Naskh'
p1128
sg16
I500
sg17
g13
sg18
g13
sg19
S'/Library/Fonts/AdobeNaskh-Medium.otf'
p1129
sg21
g22
sbag7
(g8
g9
NtRp1130
(dp1131
g12
g13
sg14
S'OCR A Std'
p1132
sg16
I400
sg17
g13
sg18
g13
sg19
S'/Library/Fonts/OCRAStd.otf'
p1133
sg21
g22
sbag7
(g8
g9
NtRp1134
(dp1135
g12
g13
sg14
S'STIXSizeThreeSym'
p1136
sg16
I400
sg17
g13
sg18
g13
sg19
S'/Library/Fonts/STIXSizThreeSymReg.otf'
p1137
sg21
g22
sbag7
(g8
g9
NtRp1138
(dp1139
g12
g13
sg14
S'DIN Condensed'
p1140
sg16
I700
sg17
g172
sg18
g13
sg19
S'/Library/Fonts/DIN Condensed Bold.ttf'
p1141
sg21
g22
sbag7
(g8
g9
NtRp1142
(dp1143
g12
g46
sg14
S'Luxi Serif'
p1144
sg16
I400
sg17
g13
sg18
g13
sg19
S'/usr/X11R6/lib/X11/fonts/TTF/luxirri.ttf'
p1145
sg21
g22
sbag7
(g8
g9
NtRp1146
(dp1147
g12
g13
sg14
S'Microsoft Himalaya'
p1148
sg16
I400
sg17
g13
sg18
g13
sg19
S'/Library/Fonts/Microsoft/himalaya.ttf'
p1149
sg21
g22
sbag7
(g8
g9
NtRp1150
(dp1151
g12
g41
sg14
S'Liberation Mono for Powerline'
p1152
sg16
I700
sg17
g13
sg18
g13
sg19
S'/Users/peitalin/Library/Fonts/Literation Mono Powerline Bold Italic.ttf'
p1153
sg21
g22
sbag7
(g8
g9
NtRp1154
(dp1155
g12
g13
sg14
S'Estrangelo Nisibin'
p1156
sg16
I400
sg17
g13
sg18
g13
sg19
S'/usr/X11/lib/X11/fonts/OTF/SyrCOMNisibin.otf'
p1157
sg21
g22
sbag7
(g8
g9
NtRp1158
(dp1159
g12
g13
sg14
S'Meslo LG M DZ for Powerline'
p1160
sg16
I400
sg17
g13
sg18
g13
sg19
S'/Users/peitalin/Library/Fonts/Meslo LG M DZ Regular for Powerline.otf'
p1161
sg21
g22
sbag7
(g8
g9
NtRp1162
(dp1163
g12
g13
sg14
S'AppleGothic'
p1164
sg16
I400
sg17
g13
sg18
g13
sg19
S'/Library/Fonts/AppleGothic.ttf'
p1165
sg21
g22
sbag7
(g8
g9
NtRp1166
(dp1167
g12
g13
sg14
S'Arial Narrow'
p1168
sg16
I400
sg17
g172
sg18
g13
sg19
S'/Library/Fonts/Arial Narrow.ttf'
p1169
sg21
g22
sbag7
(g8
g9
NtRp1170
(dp1171
g12
g13
sg14
S'Apple SD Gothic Neo'
p1172
sg16
I700
sg17
g13
sg18
g13
sg19
S'/System/Library/Fonts/AppleSDGothicNeo-Bold.otf'
p1173
sg21
g22
sbag7
(g8
g9
NtRp1174
(dp1175
g12
g46
sg14
S'Mshtakan'
p1176
sg16
I400
sg17
g13
sg18
g13
sg19
S'/Library/Fonts/MshtakanOblique.ttf'
p1177
sg21
g22
sbag7
(g8
g9
NtRp1178
(dp1179
g12
g41
sg14
S'Ubuntu'
p1180
sg16
I200
sg17
g13
sg18
g13
sg19
S'/Users/peitalin/Library/Fonts/Ubuntu-LI.ttf'
p1181
sg21
g22
sbag7
(g8
g9
NtRp1182
(dp1183
g12
g41
sg14
S'Times New Roman'
p1184
sg16
I500
sg17
g13
sg18
g13
sg19
S'/Library/Fonts/Microsoft/Times New Roman Italic.ttf'
p1185
sg21
g22
sbag7
(g8
g9
NtRp1186
(dp1187
g12
g13
sg14
S'PMingLiU-ExtB'
p1188
sg16
I400
sg17
g13
sg18
g13
sg19
S'/Library/Fonts/Microsoft/PMingLiU-ExtB.ttf'
p1189
sg21
g22
sbag7
(g8
g9
NtRp1190
(dp1191
g12
g13
sg14
S'Meslo LG S for Powerline'
p1192
sg16
I400
sg17
g13
sg18
g13
sg19
S'/Users/peitalin/Library/Fonts/Meslo LG S Regular for Powerline.otf'
p1193
sg21
g22
sbag7
(g8
g9
NtRp1194
(dp1195
g12
g46
sg14
S'Luxi Mono'
p1196
sg16
I400
sg17
g13
sg18
g13
sg19
S'/usr/X11/lib/X11/fonts/TTF/luximri.ttf'
p1197
sg21
g22
sbag7
(g8
g9
NtRp1198
(dp1199
g12
g13
sg14
S'Serto Mardin'
p1200
sg16
I700
sg17
g13
sg18
g13
sg19
S'/usr/X11/lib/X11/fonts/OTF/SyrCOMMardinBold.otf'
p1201
sg21
g22
sbag7
(g8
g9
NtRp1202
(dp1203
g12
g13
sg14
S'Myanmar Sangam MN'
p1204
sg16
I400
sg17
g13
sg18
g13
sg19
S'/Library/Fonts/Myanmar Sangam MN.ttf'
p1205
sg21
g22
sbag7
(g8
g9
NtRp1206
(dp1207
g12
g41
sg14
S'Ubuntu'
p1208
sg16
I700
sg17
g13
sg18
g13
sg19
S'/Users/peitalin/Library/Fonts/Ubuntu-BI.ttf'
p1209
sg21
g22
sbag7
(g8
g9
NtRp1210
(dp1211
g12
g13
sg14
S'Arial Narrow'
p1212
sg16
I700
sg17
g172
sg18
g13
sg19
S'/Library/Fonts/Arial Narrow Bold.ttf'
p1213
sg21
g22
sbag7
(g8
g9
NtRp1214
(dp1215
g12
g13
sg14
S'Georgia'
p1216
sg16
I400
sg17
g13
sg18
g13
sg19
S'/Library/Fonts/Georgia.ttf'
p1217
sg21
g22
sbag7
(g8
g9
NtRp1218
(dp1219
g12
g41
sg14
S'Nueva Std'
p1220
sg16
I700
sg17
g172
sg18
g13
sg19
S'/Library/Fonts/NuevaStd-BoldCondItalic.otf'
p1221
sg21
g22
sbag7
(g8
g9
NtRp1222
(dp1223
g12
g13
sg14
S'Charlemagne Std'
p1224
sg16
I700
sg17
g13
sg18
g13
sg19
S'/Library/Fonts/CharlemagneStd-Bold.otf'
p1225
sg21
g22
sbag7
(g8
g9
NtRp1226
(dp1227
g12
g13
sg14
S'Prestige Elite Std'
p1228
sg16
I700
sg17
g13
sg18
g13
sg19
S'/Library/Fonts/PrestigeEliteStd-Bd.otf'
p1229
sg21
g22
sbag7
(g8
g9
NtRp1230
(dp1231
g12
g13
sg14
S'Constantia'
p1232
sg16
I700
sg17
g13
sg18
g13
sg19
S'/Library/Fonts/Microsoft/Constantia Bold.ttf'
p1233
sg21
g22
sbag7
(g8
g9
NtRp1234
(dp1235
g12
g13
sg14
S'Minion Pro'
p1236
sg16
I400
sg17
g13
sg18
g13
sg19
S'/Library/Fonts/MinionPro-Regular.otf'
p1237
sg21
g22
sbag7
(g8
g9
NtRp1238
(dp1239
g12
g41
sg14
S'Times New Roman'
p1240
sg16
I700
sg17
g13
sg18
g13
sg19
S'/Library/Fonts/Times New Roman Bold Italic.ttf'
p1241
sg21
g22
sbag7
(g8
g9
NtRp1242
(dp1243
g12
g13
sg14
S'Linux Biolinum Capitals'
p1244
sg16
I400
sg17
g13
sg18
g13
sg19
S'/Users/peitalin/Library/Fonts/LinBiolinum_aS.ttf'
p1245
sg21
g22
sbag7
(g8
g9
NtRp1246
(dp1247
g12
g41
sg14
S'Arial Narrow'
p1248
sg16
I400
sg17
g172
sg18
g13
sg19
S'/Library/Fonts/Arial Narrow Italic.ttf'
p1249
sg21
g22
sbag7
(g8
g9
NtRp1250
(dp1251
g12
g13
sg14
S'LiHei Pro'
p1252
sg16
I400
sg17
g13
sg18
g13
sg19
S'/Library/Fonts/\xe5\x84\xb7\xe9\xbb\x91 Pro.ttf'
p1253
sg21
g22
sbag7
(g8
g9
NtRp1254
(dp1255
g12
g13
sg14
S'Apple SD Gothic Neo'
p1256
sg16
I400
sg17
g13
sg18
g13
sg19
S'/System/Library/Fonts/AppleSDGothicNeo-Regular.otf'
p1257
sg21
g22
sbag7
(g8
g9
NtRp1258
(dp1259
g12
g13
sg14
S'Arial'
p1260
sg16
I700
sg17
g13
sg18
g13
sg19
S'/Library/Fonts/Microsoft/Arial Bold.ttf'
p1261
sg21
g22
sbag7
(g8
g9
NtRp1262
(dp1263
g12
g13
sg14
S'Tw Cen MT'
p1264
sg16
I700
sg17
g13
sg18
g13
sg19
S'/Library/Fonts/Microsoft/Tw Cen MT Bold.ttf'
p1265
sg21
g22
sbag7
(g8
g9
NtRp1266
(dp1267
g12
g13
sg14
S'Plantagenet Cherokee'
p1268
sg16
I400
sg17
g13
sg18
g13
sg19
S'/Library/Fonts/PlantagenetCherokee.ttf'
p1269
sg21
g22
sbag7
(g8
g9
NtRp1270
(dp1271
g12
g13
sg14
S'BiauKai'
p1272
sg16
I400
sg17
g13
sg18
g13
sg19
S'/Library/Fonts/BiauKai.ttf'
p1273
sg21
g22
sbag7
(g8
g9
NtRp1274
(dp1275
g12
g41
sg14
S'Brush Script MT'
p1276
sg16
I400
sg17
g13
sg18
g13
sg19
S'/Library/Fonts/Microsoft/Brush Script.ttf'
p1277
sg21
g22
sbag7
(g8
g9
NtRp1278
(dp1279
g12
g41
sg14
S'Tw Cen MT'
p1280
sg16
I700
sg17
g13
sg18
g13
sg19
S'/Library/Fonts/Microsoft/Tw Cen MT Bold Italic.ttf'
p1281
sg21
g22
sbag7
(g8
g9
NtRp1282
(dp1283
g12
g13
sg14
S'STIXVariants'
p1284
sg16
I400
sg17
g13
sg18
g13
sg19
S'/Library/Fonts/STIXVar.otf'
p1285
sg21
g22
sbag7
(g8
g9
NtRp1286
(dp1287
g12
g41
sg14
S'Candara'
p1288
sg16
I700
sg17
g13
sg18
g13
sg19
S'/Library/Fonts/Microsoft/Candara Bold Italic.ttf'
p1289
sg21
g22
sbag7
(g8
g9
NtRp1290
(dp1291
g12
g41
sg14
S'Ubuntu'
p1292
sg16
I500
sg17
g13
sg18
g13
sg19
S'/Users/peitalin/Library/Fonts/Ubuntu-MI.ttf'
p1293
sg21
g22
sbag7
(g8
g9
NtRp1294
(dp1295
g12
g13
sg14
S'Hiragino Kaku Gothic ProN'
p1296
sg16
I700
sg17
g13
sg18
g13
sg19
S'/System/Library/Fonts/\xe3\x83\x92\xe3\x83\xa9\xe3\x82\xad\xe3\x82\x99\xe3\x83\x8e\xe8\xa7\x92\xe3\x82\xb3\xe3\x82\x99 ProN W6.otf'
p1297
sg21
g22
sbag7
(g8
g9
NtRp1298
(dp1299
g12
g13
sg14
S'Lithos Pro'
p1300
sg16
I900
sg17
g13
sg18
g13
sg19
S'/Library/Fonts/LithosPro-Black.otf'
p1301
sg21
g22
sbag7
(g8
g9
NtRp1302
(dp1303
g12
g13
sg14
S'Birch Std'
p1304
sg16
I400
sg17
g13
sg18
g13
sg19
S'/Library/Fonts/BirchStd.otf'
p1305
sg21
g22
sbag7
(g8
g9
NtRp1306
(dp1307
g12
g13
sg14
S'Cambria Math'
p1308
sg16
I400
sg17
g13
sg18
g13
sg19
S'/Library/Fonts/Microsoft/Cambria Math.ttf'
p1309
sg21
g22
sbag7
(g8
g9
NtRp1310
(dp1311
g12
g13
sg14
S'Skia'
p1312
sg16
I400
sg17
g13
sg18
g13
sg19
S'/Library/Fonts/Skia.ttf'
p1313
sg21
g22
sbag7
(g8
g9
NtRp1314
(dp1315
g12
g13
sg14
S'Kozuka Gothic Pr6N'
p1316
sg16
I700
sg17
g13
sg18
g13
sg19
S'/Library/Fonts/KozGoPr6N-Bold.otf'
p1317
sg21
g22
sbag7
(g8
g9
NtRp1318
(dp1319
g12
g13
sg14
S'Adobe Arabic'
p1320
sg16
I400
sg17
g13
sg18
g13
sg19
S'/Library/Fonts/AdobeArabic-Regular.otf'
p1321
sg21
g22
sbag7
(g8
g9
NtRp1322
(dp1323
g12
g46
sg14
S'Luxi Sans'
p1324
sg16
I700
sg17
g13
sg18
g13
sg19
S'/usr/X11R6/lib/X11/fonts/TTF/luxisbi.ttf'
p1325
sg21
g22
sbag7
(g8
g9
NtRp1326
(dp1327
g12
g13
sg14
S'Kozuka Mincho Pro'
p1328
sg16
I700
sg17
g13
sg18
g13
sg19
S'/Library/Fonts/KozMinPro-Heavy.otf'
p1329
sg21
g22
sbag7
(g8
g9
NtRp1330
(dp1331
g12
g13
sg14
S'YuMincho'
p1332
sg16
I700
sg17
g13
sg18
g13
sg19
S'/Library/Fonts/Yu Mincho Demibold.otf'
p1333
sg21
g22
sbag7
(g8
g9
NtRp1334
(dp1335
g12
g13
sg14
S'STFangsong'
p1336
sg16
I400
sg17
g13
sg18
g13
sg19
S'/Library/Fonts/\xe5\x8d\x8e\xe6\x96\x87\xe4\xbb\xbf\xe5\xae\x8b.ttf'
p1337
sg21
g22
sbag7
(g8
g9
NtRp1338
(dp1339
g12
g13
sg14
S'Lucida Console'
p1340
sg16
I400
sg17
g13
sg18
g13
sg19
S'/Library/Fonts/Microsoft/Lucida Console.ttf'
p1341
sg21
g22
sbag7
(g8
g9
NtRp1342
(dp1343
g12
g13
sg14
S'Lithos Pro'
p1344
sg16
I400
sg17
g13
sg18
g13
sg19
S'/Library/Fonts/LithosPro-Regular.otf'
p1345
sg21
g22
sbag7
(g8
g9
NtRp1346
(dp1347
g12
g13
sg14
S'Trajan Pro'
p1348
sg16
I400
sg17
g13
sg18
g13
sg19
S'/Library/Fonts/TrajanPro-Regular.otf'
p1349
sg21
g22
sbag7
(g8
g9
NtRp1350
(dp1351
g12
g13
sg14
S'Kozuka Mincho Pro'
p1352
sg16
I700
sg17
g13
sg18
g13
sg19
S'/Library/Fonts/KozMinPro-Bold.otf'
p1353
sg21
g22
sbag7
(g8
g9
NtRp1354
(dp1355
g12
g13
sg14
S'Perpetua'
p1356
sg16
I400
sg17
g13
sg18
g13
sg19
S'/Library/Fonts/Microsoft/Perpetua.ttf'
p1357
sg21
g22
sbag7
(g8
g9
NtRp1358
(dp1359
g12
g13
sg14
S'Nueva Std'
p1360
sg16
I700
sg17
g172
sg18
g13
sg19
S'/Library/Fonts/NuevaStd-BoldCond.otf'
p1361
sg21
g22
sbag7
(g8
g9
NtRp1362
(dp1363
g12
g13
sg14
S'Cambria'
p1364
sg16
I700
sg17
g13
sg18
g13
sg19
S'/Library/Fonts/Microsoft/Cambria Bold.ttf'
p1365
sg21
g22
sbag7
(g8
g9
NtRp1366
(dp1367
g12
g13
sg14
S'Source Code Pro for Powerline'
p1368
sg16
I700
sg17
g13
sg18
g13
sg19
S'/Users/peitalin/Library/Fonts/Sauce Code Powerline Bold.otf'
p1369
sg21
g22
sbag7
(g8
g9
NtRp1370
(dp1371
g12
g41
sg14
S'Courier New'
p1372
sg16
I700
sg17
g13
sg18
g13
sg19
S'/Library/Fonts/Courier New Bold Italic.ttf'
p1373
sg21
g22
sbag7
(g8
g9
NtRp1374
(dp1375
g12
g13
sg14
S'Arial Rounded MT Bold'
p1376
sg16
I700
sg17
g13
sg18
g13
sg19
S'/Library/Fonts/Arial Rounded Bold.ttf'
p1377
sg21
g22
sbag7
(g8
g9
NtRp1378
(dp1379
g12
g13
sg14
S'Devanagari MT'
p1380
sg16
I700
sg17
g13
sg18
g13
sg19
S'/Library/Fonts/DevanagariMTBold.ttf'
p1381
sg21
g22
sbag7
(g8
g9
NtRp1382
(dp1383
g12
g13
sg14
S'Trajan Pro'
p1384
sg16
I700
sg17
g13
sg18
g13
sg19
S'/Library/Fonts/TrajanPro-Bold.otf'
p1385
sg21
g22
sbag7
(g8
g9
NtRp1386
(dp1387
g12
g41
sg14
S'Adobe Arabic'
p1388
sg16
I700
sg17
g13
sg18
g13
sg19
S'/Library/Fonts/AdobeArabic-BoldItalic.otf'
p1389
sg21
g22
sbag7
(g8
g9
NtRp1390
(dp1391
g12
g41
sg14
S'Anonymous Pro'
p1392
sg16
I700
sg17
g13
sg18
g13
sg19
S'/Users/peitalin/Library/Fonts/Anonymous_Pro_BI.ttf'
p1393
sg21
g22
sbag7
(g8
g9
NtRp1394
(dp1395
g12
g13
sg14
S'Kozuka Gothic Pr6N'
p1396
sg16
I400
sg17
g13
sg18
g13
sg19
S'/Library/Fonts/KozGoPr6N-Light.otf'
p1397
sg21
g22
sbag7
(g8
g9
NtRp1398
(dp1399
g12
g13
sg14
S'MingLiU-ExtB'
p1400
sg16
I400
sg17
g13
sg18
g13
sg19
S'/Library/Fonts/Microsoft/MingLiU-ExtB.ttf'
p1401
sg21
g22
sbag7
(g8
g9
NtRp1402
(dp1403
g12
g41
sg14
S'Franklin Gothic Medium'
p1404
sg16
I500
sg17
g13
sg18
g13
sg19
S'/Library/Fonts/Microsoft/Franklin Gothic Medium Italic.ttf'
p1405
sg21
g22
sbag7
(g8
g9
NtRp1406
(dp1407
g12
g13
sg14
S'Kozuka Mincho Pro'
p1408
sg16
I400
sg17
g13
sg18
g13
sg19
S'/Library/Fonts/KozMinPro-Medium.otf'
p1409
sg21
g22
sbag7
(g8
g9
NtRp1410
(dp1411
g12
g41
sg14
S'Constantia'
p1412
sg16
I400
sg17
g13
sg18
g13
sg19
S'/Library/Fonts/Microsoft/Constantia Italic.ttf'
p1413
sg21
g22
sbag7
(g8
g9
NtRp1414
(dp1415
g12
g13
sg14
S'InaiMathi'
p1416
sg16
I400
sg17
g13
sg18
g13
sg19
S'/Library/Fonts/InaiMathi.ttf'
p1417
sg21
g22
sbag7
(g8
g9
NtRp1418
(dp1419
g12
g13
sg14
S'Cambria'
p1420
sg16
I400
sg17
g13
sg18
g13
sg19
S'/Library/Fonts/Microsoft/Cambria.ttf'
p1421
sg21
g22
sbag7
(g8
g9
NtRp1422
(dp1423
g12
g13
sg14
S'Perpetua'
p1424
sg16
I700
sg17
g13
sg18
g13
sg19
S'/Library/Fonts/Microsoft/Perpetua Bold.ttf'
p1425
sg21
g22
sbag7
(g8
g9
NtRp1426
(dp1427
g12
g41
sg14
S'Ubuntu Mono'
p1428
sg16
I700
sg17
g13
sg18
g13
sg19
S'/Users/peitalin/Library/Fonts/UbuntuMono-BI.ttf'
p1429
sg21
g22
sbag7
(g8
g9
NtRp1430
(dp1431
g12
g13
sg14
S'Batang'
p1432
sg16
I400
sg17
g13
sg18
g13
sg19
S'/Library/Fonts/Microsoft/Batang.ttf'
p1433
sg21
g22
sbag7
(g8
g9
NtRp1434
(dp1435
g12
g13
sg14
S'Kozuka Gothic Pro'
p1436
sg16
I400
sg17
g13
sg18
g13
sg19
S'/Library/Fonts/KozGoPro-Light.otf'
p1437
sg21
g22
sbag7
(g8
g9
NtRp1438
(dp1439
g12
g13
sg14
S'Minion Pro'
p1440
sg16
I700
sg17
g13
sg18
g13
sg19
S'/Library/Fonts/MinionPro-Semibold.otf'
p1441
sg21
g22
sbag7
(g8
g9
NtRp1442
(dp1443
g12
g13
sg14
S'Humor Sans'
p1444
sg16
I400
sg17
g13
sg18
g13
sg19
S'/Users/peitalin/Library/Fonts/Humor-Sans-1.0.ttf'
p1445
sg21
g22
sbag7
(g8
g9
NtRp1446
(dp1447
g12
g41
sg14
S'Letter Gothic Std'
p1448
sg16
I400
sg17
g13
sg18
g13
sg19
S'/Library/Fonts/LetterGothicStd-Slanted.otf'
p1449
sg21
g22
sbag7
(g8
g9
NtRp1450
(dp1451
g12
g13
sg14
S'DecoType Naskh'
p1452
sg16
I400
sg17
g13
sg18
g13
sg19
S'/Library/Fonts/DecoTypeNaskh.ttf'
p1453
sg21
g22
sbag7
(g8
g9
NtRp1454
(dp1455
g12
g13
sg14
S'Ubuntu Mono derivative Powerline'
p1456
sg16
I400
sg17
g13
sg18
g13
sg19
S'/Users/peitalin/Library/Fonts/Ubuntu Mono derivative Powerline.ttf'
p1457
sg21
g22
sbag7
(g8
g9
NtRp1458
(dp1459
g12
g41
sg14
S'Myriad Pro'
p1460
sg16
I700
sg17
g13
sg18
g13
sg19
S'/Library/Fonts/MyriadPro-BoldIt.otf'
p1461
sg21
g22
sbag7
(g8
g9
NtRp1462
(dp1463
g12
g13
sg14
S'HeadLineA'
p1464
sg16
I400
sg17
g13
sg18
g13
sg19
S'/Library/Fonts/HeadlineA.ttf'
p1465
sg21
g22
sbag7
(g8
g9
NtRp1466
(dp1467
g12
g13
sg14
S'.Keyboard'
p1468
sg16
I400
sg17
g13
sg18
g13
sg19
S'/System/Library/Fonts/Keyboard.ttf'
p1469
sg21
g22
sbag7
(g8
g9
NtRp1470
(dp1471
g12
g13
sg14
S'Hiragino Kaku Gothic Std'
p1472
sg16
I700
sg17
g13
sg18
g13
sg19
S'/Library/Fonts/\xe3\x83\x92\xe3\x83\xa9\xe3\x82\xad\xe3\x82\x99\xe3\x83\x8e\xe8\xa7\x92\xe3\x82\xb3\xe3\x82\x99 Std W8.otf'
p1473
sg21
g22
sbag7
(g8
g9
NtRp1474
(dp1475
g12
g13
sg14
S'Lucida Sans Unicode'
p1476
sg16
I400
sg17
g13
sg18
g13
sg19
S'/Library/Fonts/Microsoft/Lucida Sans Unicode.ttf'
p1477
sg21
g22
sbag7
(g8
g9
NtRp1478
(dp1479
g12
g13
sg14
S'Hiragino Sans GB'
p1480
sg16
I700
sg17
g13
sg18
g13
sg19
S'/Library/Fonts/Hiragino Sans GB W6.otf'
p1481
sg21
g22
sbag7
(g8
g9
NtRp1482
(dp1483
g12
g13
sg14
S'Geeza Pro'
p1484
sg16
I400
sg17
g13
sg18
g13
sg19
S'/System/Library/Fonts/Geeza Pro.ttf'
p1485
sg21
g22
sbag7
(g8
g9
NtRp1486
(dp1487
g12
g41
sg14
S'Consolas'
p1488
sg16
I700
sg17
g13
sg18
g13
sg19
S'/Library/Fonts/Microsoft/Consolas Bold Italic.ttf'
p1489
sg21
g22
sbag7
(g8
g9
NtRp1490
(dp1491
g12
g13
sg14
S'Microsoft Sans Serif'
p1492
sg16
I400
sg17
g13
sg18
g13
sg19
S'/Library/Fonts/Microsoft Sans Serif.ttf'
p1493
sg21
g22
sbag7
(g8
g9
NtRp1494
(dp1495
g12
g13
sg14
S'STIXIntegralsUpD'
p1496
sg16
I700
sg17
g13
sg18
g13
sg19
S'/Library/Fonts/STIXIntUpDBol.otf'
p1497
sg21
g22
sbag7
(g8
g9
NtRp1498
(dp1499
g12
g13
sg14
S'Myriad Pro'
p1500
sg16
I700
sg17
g13
sg18
g13
sg19
S'/Library/Fonts/MyriadPro-Bold.otf'
p1501
sg21
g22
sbag7
(g8
g9
NtRp1502
(dp1503
g12
g13
sg14
S'STIXGeneral'
p1504
sg16
I400
sg17
g13
sg18
g13
sg19
S'/Library/Fonts/STIXGeneral.otf'
p1505
sg21
g22
sbag7
(g8
g9
NtRp1506
(dp1507
g12
g13
sg14
S'Hiragino Kaku Gothic Pro'
p1508
sg16
I400
sg17
g13
sg18
g13
sg19
S'/Library/Fonts/\xe3\x83\x92\xe3\x83\xa9\xe3\x82\xad\xe3\x82\x99\xe3\x83\x8e\xe8\xa7\x92\xe3\x82\xb3\xe3\x82\x99 Pro W3.otf'
p1509
sg21
g22
sbag7
(g8
g9
NtRp1510
(dp1511
g12
g13
sg14
S'Giddyup Std'
p1512
sg16
I400
sg17
g13
sg18
g13
sg19
S'/Library/Fonts/GiddyupStd.otf'
p1513
sg21
g22
sbag7
(g8
g9
NtRp1514
(dp1515
g12
g13
sg14
S'Yuppy TC'
p1516
sg16
I400
sg17
g13
sg18
g13
sg19
S'/Library/Fonts/YuppyTC-Regular.otf'
p1517
sg21
g22
sbag7
(g8
g9
NtRp1518
(dp1519
g12
g13
sg14
S'Apple Chancery'
p1520
sg16
I400
sg17
g13
sg18
g13
sg19
S'/Library/Fonts/Apple Chancery.ttf'
p1521
sg21
g22
sbag7
(g8
g9
NtRp1522
(dp1523
g12
g46
sg14
S'DejaVu Sans Mono for Powerline'
p1524
sg16
I400
sg17
g13
sg18
g13
sg19
S'/Users/peitalin/Library/Fonts/DejaVu Sans Mono Oblique for Powerline.ttf'
p1525
sg21
g22
sbag7
(g8
g9
NtRp1526
(dp1527
g12
g13
sg14
S'STIXIntegralsUpSm'
p1528
sg16
I700
sg17
g13
sg18
g13
sg19
S'/Library/Fonts/STIXIntUpSmBol.otf'
p1529
sg21
g22
sbag7
(g8
g9
NtRp1530
(dp1531
g12
g41
sg14
S'Myriad Hebrew'
p1532
sg16
I700
sg17
g13
sg18
g13
sg19
S'/Library/Fonts/MyriadHebrew-BoldIt.otf'
p1533
sg21
g22
sbag7
(g8
g9
NtRp1534
(dp1535
g12
g13
sg14
S'STIXSizeOneSym'
p1536
sg16
I700
sg17
g13
sg18
g13
sg19
S'/Library/Fonts/STIXSizOneSymBol.otf'
p1537
sg21
g22
sbag7
(g8
g9
NtRp1538
(dp1539
g12
g13
sg14
S'SimSun-ExtB'
p1540
sg16
I400
sg17
g13
sg18
g13
sg19
S'/Library/Fonts/Microsoft/SimSun-ExtB.ttf'
p1541
sg21
g22
sbag7
(g8
g9
NtRp1542
(dp1543
g12
g13
sg14
S'Palatino Linotype'
p1544
sg16
I400
sg17
g13
sg18
g13
sg19
S'/Library/Fonts/Microsoft/Palatino Linotype.ttf'
p1545
sg21
g22
sbag7
(g8
g9
NtRp1546
(dp1547
g12
g13
sg14
S'Adobe Hebrew'
p1548
sg16
I400
sg17
g13
sg18
g13
sg19
S'/Library/Fonts/AdobeHebrew-Regular.otf'
p1549
sg21
g22
sbag7
(g8
g9
NtRp1550
(dp1551
g12
g13
sg14
S'STIXSizeTwoSym'
p1552
sg16
I400
sg17
g13
sg18
g13
sg19
S'/Library/Fonts/STIXSizTwoSymReg.otf'
p1553
sg21
g22
sbag7
(g8
g9
NtRp1554
(dp1555
g12
g13
sg14
S'Ubuntu'
p1556
sg16
I200
sg17
g13
sg18
g13
sg19
S'/Users/peitalin/Library/Fonts/Ubuntu-L.ttf'
p1557
sg21
g22
sbag7
(g8
g9
NtRp1558
(dp1559
g12
g13
sg14
S'Weibei SC'
p1560
sg16
I700
sg17
g13
sg18
g13
sg19
S'/Library/Fonts/WeibeiSC-Bold.otf'
p1561
sg21
g22
sbag7
(g8
g9
NtRp1562
(dp1563
g12
g13
sg14
S'MS PGothic'
p1564
sg16
I400
sg17
g13
sg18
g13
sg19
S'/Library/Fonts/Microsoft/MS PGothic.ttf'
p1565
sg21
g22
sbag7
(g8
g9
NtRp1566
(dp1567
g12
g41
sg14
S'Serto Jerusalem'
p1568
sg16
I400
sg17
g13
sg18
g13
sg19
S'/usr/X11/lib/X11/fonts/OTF/SyrCOMJerusalemItalic.otf'
p1569
sg21
g22
sbag7
(g8
g9
NtRp1570
(dp1571
g12
g13
sg14
S'Meslo LG S DZ for Powerline'
p1572
sg16
I400
sg17
g13
sg18
g13
sg19
S'/Users/peitalin/Library/Fonts/Meslo LG S DZ Regular for Powerline.otf'
p1573
sg21
g22
sbag7
(g8
g9
NtRp1574
(dp1575
g12
g13
sg14
S'Microsoft Tai Le'
p1576
sg16
I700
sg17
g13
sg18
g13
sg19
S'/Library/Fonts/Microsoft/TaiLeb.ttf'
p1577
sg21
g22
sbag7
(g8
g9
NtRp1578
(dp1579
g12
g13
sg14
S'STIXIntegralsUpD'
p1580
sg16
I400
sg17
g13
sg18
g13
sg19
S'/Library/Fonts/STIXIntUpDReg.otf'
p1581
sg21
g22
sbag7
(g8
g9
NtRp1582
(dp1583
g12
g13
sg14
S'Raleway'
p1584
sg16
I500
sg17
g13
sg18
g13
sg19
S'/Users/peitalin/Library/Fonts/Raleway-Medium.ttf'
p1585
sg21
g22
sbag7
(g8
g9
NtRp1586
(dp1587
g12
g41
sg14
S'Meiryo'
p1588
sg16
I700
sg17
g13
sg18
g13
sg19
S'/Library/Fonts/Microsoft/Meiryo Bold Italic.ttf'
p1589
sg21
g22
sbag7
(g8
g9
NtRp1590
(dp1591
g12
g13
sg14
S'Kozuka Gothic Pro'
p1592
sg16
I700
sg17
g13
sg18
g13
sg19
S'/Library/Fonts/KozGoPro-Bold.otf'
p1593
sg21
g22
sbag7
(g8
g9
NtRp1594
(dp1595
g12
g41
sg14
S'Candara'
p1596
sg16
I400
sg17
g13
sg18
g13
sg19
S'/Library/Fonts/Microsoft/Candara Italic.ttf'
p1597
sg21
g22
sbag7
(g8
g9
NtRp1598
(dp1599
g12
g13
sg14
S'Kozuka Gothic Pro'
p1600
sg16
I400
sg17
g13
sg18
g13
sg19
S'/Library/Fonts/KozGoPro-Medium.otf'
p1601
sg21
g22
sbag7
(g8
g9
NtRp1602
(dp1603
g12
g13
sg14
S'Apple SD Gothic Neo'
p1604
sg16
I200
sg17
g13
sg18
g13
sg19
S'/Library/Fonts/AppleSDGothicNeo-UltraLight.otf'
p1605
sg21
g22
sbag7
(g8
g9
NtRp1606
(dp1607
g12
g13
sg14
S'Arial Unicode MS'
p1608
sg16
I400
sg17
g13
sg18
g13
sg19
S'/Library/Fonts/Arial Unicode.ttf'
p1609
sg21
g22
sbag7
(g8
g9
NtRp1610
(dp1611
g12
g13
sg14
S'Adobe Heiti Std'
p1612
sg16
I400
sg17
g13
sg18
g13
sg19
S'/Library/Fonts/AdobeHeitiStd-Regular.otf'
p1613
sg21
g22
sbag7
(g8
g9
NtRp1614
(dp1615
g12
g13
sg14
S'Kozuka Gothic Pr6N'
p1616
sg16
I700
sg17
g13
sg18
g13
sg19
S'/Library/Fonts/KozGoPr6N-Heavy.otf'
p1617
sg21
g22
sbag7
(g8
g9
NtRp1618
(dp1619
g12
g41
sg14
S'Adobe Devanagari'
p1620
sg16
I400
sg17
g13
sg18
g13
sg19
S'/Library/Fonts/AdobeDevanagari-Italic.otf'
p1621
sg21
g22
sbag7
(g8
g9
NtRp1622
(dp1623
g12
g13
sg14
S'Apple SD Gothic Neo'
p1624
sg16
I800
sg17
g13
sg18
g13
sg19
S'/Library/Fonts/AppleSDGothicNeo-Heavy.otf'
p1625
sg21
g22
sbag7
(g8
g9
NtRp1626
(dp1627
g12
g13
sg14
S'Myriad Hebrew'
p1628
sg16
I400
sg17
g13
sg18
g13
sg19
S'/Library/Fonts/MyriadHebrew-Regular.otf'
p1629
sg21
g22
sbag7
(g8
g9
NtRp1630
(dp1631
g12
g13
sg14
S'Times New Roman'
p1632
sg16
I700
sg17
g13
sg18
g13
sg19
S'/Library/Fonts/Microsoft/Times New Roman Bold.ttf'
p1633
sg21
g22
sbag7
(g8
g9
NtRp1634
(dp1635
g12
g13
sg14
S'Kozuka Mincho Pr6N'
p1636
sg16
I400
sg17
g13
sg18
g13
sg19
S'/Library/Fonts/KozMinPr6N-Regular.otf'
p1637
sg21
g22
sbag7
(g8
g9
NtRp1638
(dp1639
g12
g41
sg14
S'Caviar Dreams'
p1640
sg16
I700
sg17
g13
sg18
g13
sg19
S'/Users/peitalin/Library/Fonts/CaviarDreams_BoldItalic.ttf'
p1641
sg21
g22
sbag7
(g8
g9
NtRp1642
(dp1643
g12
g13
sg14
S'Adobe Fan Heiti Std'
p1644
sg16
I700
sg17
g13
sg18
g13
sg19
S'/Library/Fonts/AdobeFanHeitiStd-Bold.otf'
p1645
sg21
g22
sbag7
(g8
g9
NtRp1646
(dp1647
g12
g13
sg14
S'Serto Jerusalem Outline'
p1648
sg16
I400
sg17
g13
sg18
g13
sg19
S'/usr/X11/lib/X11/fonts/OTF/SyrCOMJerusalemOutline.otf'
p1649
sg21
g22
sbag7
(g8
g9
NtRp1650
(dp1651
g12
g13
sg14
S'STIXIntegralsD'
p1652
sg16
I700
sg17
g13
sg18
g13
sg19
S'/Library/Fonts/STIXIntDBol.otf'
p1653
sg21
g22
sbag7
(g8
g9
NtRp1654
(dp1655
g12
g13
sg14
S'Chaparral Pro'
p1656
sg16
I700
sg17
g13
sg18
g13
sg19
S'/Library/Fonts/ChaparralPro-Bold.otf'
p1657
sg21
g22
sbag7
(g8
g9
NtRp1658
(dp1659
g12
g13
sg14
S'DIN Alternate'
p1660
sg16
I700
sg17
g13
sg18
g13
sg19
S'/Library/Fonts/DIN Alternate Bold.ttf'
p1661
sg21
g22
sbag7
(g8
g9
NtRp1662
(dp1663
g12
g13
sg14
S'Courier New'
p1664
sg16
I400
sg17
g13
sg18
g13
sg19
S'/Library/Fonts/Courier New.ttf'
p1665
sg21
g22
sbag7
(g8
g9
NtRp1666
(dp1667
g12
g41
sg14
S'Arial Narrow'
p1668
sg16
I700
sg17
g172
sg18
g13
sg19
S'/Library/Fonts/Arial Narrow Bold Italic.ttf'
p1669
sg21
g22
sbag7
(g8
g9
NtRp1670
(dp1671
g12
g13
sg14
S'Serto Jerusalem'
p1672
sg16
I400
sg17
g13
sg18
g13
sg19
S'/usr/X11/lib/X11/fonts/OTF/SyrCOMJerusalem.otf'
p1673
sg21
g22
sbag7
(g8
g9
NtRp1674
(dp1675
g12
g13
sg14
S'Zapfino'
p1676
sg16
I400
sg17
g13
sg18
g13
sg19
S'/Library/Fonts/Zapfino.ttf'
p1677
sg21
g22
sbag7
(g8
g9
NtRp1678
(dp1679
g12
g13
sg14
S'Krungthep'
p1680
sg16
I400
sg17
g13
sg18
g13
sg19
S'/Library/Fonts/Krungthep.ttf'
p1681
sg21
g22
sbag7
(g8
g9
NtRp1682
(dp1683
g12
g13
sg14
S'Apple SD Gothic Neo'
p1684
sg16
I700
sg17
g13
sg18
g13
sg19
S'/Library/Fonts/AppleSDGothicNeo-ExtraBold.otf'
p1685
sg21
g22
sbag7
(g8
g9
NtRp1686
(dp1687
g12
g13
sg14
S'Mongolian Baiti'
p1688
sg16
I400
sg17
g13
sg18
g13
sg19
S'/Library/Fonts/Microsoft/monbaiti.ttf'
p1689
sg21
g22
sbag7
(g8
g9
NtRp1690
(dp1691
g12
g13
sg14
S'Franklin Gothic Medium'
p1692
sg16
I500
sg17
g13
sg18
g13
sg19
S'/Library/Fonts/Microsoft/Franklin Gothic Medium.ttf'
p1693
sg21
g22
sbag7
(g8
g9
NtRp1694
(dp1695
g12
g13
sg14
S'Caviar Dreams'
p1696
sg16
I700
sg17
g13
sg18
g13
sg19
S'/Users/peitalin/Library/Fonts/Caviar Dreams Bold.ttf'
p1697
sg21
g22
sbag7
(g8
g9
NtRp1698
(dp1699
g12
g13
sg14
S'Myriad Hebrew'
p1700
sg16
I700
sg17
g13
sg18
g13
sg19
S'/Library/Fonts/MyriadHebrew-Bold.otf'
p1701
sg21
g22
sbag7
(g8
g9
NtRp1702
(dp1703
g12
g41
sg14
S'Cooper Std'
p1704
sg16
I900
sg17
g13
sg18
g13
sg19
S'/Library/Fonts/CooperBlackStd-Italic.otf'
p1705
sg21
g22
sbag7
(g8
g9
NtRp1706
(dp1707
g12
g13
sg14
S'Minion Pro'
p1708
sg16
I700
sg17
g172
sg18
g13
sg19
S'/Library/Fonts/MinionPro-BoldCn.otf'
p1709
sg21
g22
sbag7
(g8
g9
NtRp1710
(dp1711
g12
g13
sg14
S'Hiragino Kaku Gothic ProN'
p1712
sg16
I400
sg17
g13
sg18
g13
sg19
S'/System/Library/Fonts/\xe3\x83\x92\xe3\x83\xa9\xe3\x82\xad\xe3\x82\x99\xe3\x83\x8e\xe8\xa7\x92\xe3\x82\xb3\xe3\x82\x99 ProN W3.otf'
p1713
sg21
g22
sbag7
(g8
g9
NtRp1714
(dp1715
g12
g13
sg14
S'STHeiti'
p1716
sg16
I400
sg17
g13
sg18
g13
sg19
S'/Library/Fonts/\xe5\x8d\x8e\xe6\x96\x87\xe9\xbb\x91\xe4\xbd\x93.ttf'
p1717
sg21
g22
sbag7
(g8
g9
NtRp1718
(dp1719
g12
g13
sg14
S'Estrangelo Midyat'
p1720
sg16
I400
sg17
g13
sg18
g13
sg19
S'/usr/X11/lib/X11/fonts/OTF/SyrCOMMidyat.otf'
p1721
sg21
g22
sbag7
(g8
g9
NtRp1722
(dp1723
g12
g13
sg14
S'Apple Braille'
p1724
sg16
I400
sg17
g13
sg18
g13
sg19
S'/System/Library/Fonts/Apple Braille Outline 8 Dot.ttf'
p1725
sg21
g22
sbag7
(g8
g9
NtRp1726
(dp1727
g12
g13
sg14
S'Kozuka Mincho Pro'
p1728
sg16
I400
sg17
g13
sg18
g13
sg19
S'/Library/Fonts/KozMinPro-Light.otf'
p1729
sg21
g22
sbag7
(g8
g9
NtRp1730
(dp1731
g12
g41
sg14
S'Corbel'
p1732
sg16
I400
sg17
g13
sg18
g13
sg19
S'/Library/Fonts/Microsoft/Corbel Italic.ttf'
p1733
sg21
g22
sbag7
(g8
g9
NtRp1734
(dp1735
g12
g13
sg14
S'Palatino Linotype'
p1736
sg16
I700
sg17
g13
sg18
g13
sg19
S'/Library/Fonts/Microsoft/Palatino Linotype Bold.ttf'
p1737
sg21
g22
sbag7
(g8
g9
NtRp1738
(dp1739
g12
g41
sg14
S'Adobe Garamond Pro'
p1740
sg16
I400
sg17
g13
sg18
g13
sg19
S'/Library/Fonts/AGaramondPro-Italic.otf'
p1741
sg21
g22
sbag7
(g8
g9
NtRp1742
(dp1743
g12
g13
sg14
S'STIXVariants'
p1744
sg16
I700
sg17
g13
sg18
g13
sg19
S'/Library/Fonts/STIXVarBol.otf'
p1745
sg21
g22
sbag7
(g8
g9
NtRp1746
(dp1747
g12
g13
sg14
S'Serto Malankara'
p1748
sg16
I400
sg17
g13
sg18
g13
sg19
S'/usr/X11/lib/X11/fonts/OTF/SyrCOMMalankara.otf'
p1749
sg21
g22
sbag7
(g8
g9
NtRp1750
(dp1751
g12
g13
sg14
S'Source Code Pro for Powerline'
p1752
sg16
I200
sg17
g13
sg18
g13
sg19
S'/Users/peitalin/Library/Fonts/Sauce Code Powerline Light.otf'
p1753
sg21
g22
sbag7
(g8
g9
NtRp1754
(dp1755
g12
g13
sg14
S'Hiragino Kaku Gothic StdN'
p1756
sg16
I700
sg17
g13
sg18
g13
sg19
S'/Library/Fonts/\xe3\x83\x92\xe3\x83\xa9\xe3\x82\xad\xe3\x82\x99\xe3\x83\x8e\xe8\xa7\x92\xe3\x82\xb3\xe3\x82\x99 StdN W8.otf'
p1757
sg21
g22
sbag7
(g8
g9
NtRp1758
(dp1759
g12
g13
sg14
S'Anonymous Pro'
p1760
sg16
I700
sg17
g13
sg18
g13
sg19
S'/Users/peitalin/Library/Fonts/Anonymous_Pro_B.ttf'
p1761
sg21
g22
sbag7
(g8
g9
NtRp1762
(dp1763
g12
g13
sg14
S'MS Gothic'
p1764
sg16
I400
sg17
g13
sg18
g13
sg19
S'/Library/Fonts/Microsoft/MS Gothic.ttf'
p1765
sg21
g22
sbag7
(g8
g9
NtRp1766
(dp1767
g12
g13
sg14
S'MS PMincho'
p1768
sg16
I400
sg17
g13
sg18
g13
sg19
S'/Library/Fonts/Microsoft/MS PMincho.ttf'
p1769
sg21
g22
sbag7
(g8
g9
NtRp1770
(dp1771
g12
g13
sg14
S'STIXIntegralsUp'
p1772
sg16
I700
sg17
g13
sg18
g13
sg19
S'/Library/Fonts/STIXIntUpBol.otf'
p1773
sg21
g22
sbag7
(g8
g9
NtRp1774
(dp1775
g12
g13
sg14
S'Wawati TC'
p1776
sg16
I400
sg17
g13
sg18
g13
sg19
S'/Library/Fonts/WawaTC-Regular.otf'
p1777
sg21
g22
sbag7
(g8
g9
NtRp1778
(dp1779
g12
g13
sg14
S'MS Reference Sans Serif'
p1780
sg16
I400
sg17
g13
sg18
g13
sg19
S'/Library/Fonts/Microsoft/MS Reference Sans Serif.ttf'
p1781
sg21
g22
sbag7
(g8
g9
NtRp1782
(dp1783
g12
g13
sg14
S'STIXSizeTwoSym'
p1784
sg16
I700
sg17
g13
sg18
g13
sg19
S'/Library/Fonts/STIXSizTwoSymBol.otf'
p1785
sg21
g22
sbag7
(g8
g9
NtRp1786
(dp1787
g12
g13
sg14
S'Hiragino Mincho Pro'
p1788
sg16
I400
sg17
g13
sg18
g13
sg19
S'/Library/Fonts/\xe3\x83\x92\xe3\x83\xa9\xe3\x82\xad\xe3\x82\x99\xe3\x83\x8e\xe6\x98\x8e\xe6\x9c\x9d Pro W3.otf'
p1789
sg21
g22
sbag7
(g8
g9
NtRp1790
(dp1791
g12
g13
sg14
S'Corbel'
p1792
sg16
I400
sg17
g13
sg18
g13
sg19
S'/Library/Fonts/Microsoft/Corbel.ttf'
p1793
sg21
g22
sbag7
(g8
g9
NtRp1794
(dp1795
g12
g13
sg14
S'Adobe Caslon Pro'
p1796
sg16
I700
sg17
g13
sg18
g13
sg19
S'/Library/Fonts/ACaslonPro-Semibold.otf'
p1797
sg21
g22
sbag7
(g8
g9
NtRp1798
(dp1799
g12
g13
sg14
S'Serto Mardin'
p1800
sg16
I400
sg17
g13
sg18
g13
sg19
S'/usr/X11/lib/X11/fonts/OTF/SyrCOMMardin.otf'
p1801
sg21
g22
sbag7
(g8
g9
NtRp1802
(dp1803
g12
g13
sg14
S'Ubuntu Condensed'
p1804
sg16
I400
sg17
g172
sg18
g13
sg19
S'/Users/peitalin/Library/Fonts/Ubuntu-C.ttf'
p1805
sg21
g22
sbag7
(g8
g9
NtRp1806
(dp1807
g12
g13
sg14
S'Estrangelo Nisibin Outline'
p1808
sg16
I400
sg17
g13
sg18
g13
sg19
S'/usr/X11/lib/X11/fonts/OTF/SyrCOMNisibinOutline.otf'
p1809
sg21
g22
sbag7
(g8
g9
NtRp1810
(dp1811
g12
g13
sg14
S'SimSun'
p1812
sg16
I400
sg17
g13
sg18
g13
sg19
S'/Library/Fonts/Microsoft/SimSun.ttf'
p1813
sg21
g22
sbag7
(g8
g9
NtRp1814
(dp1815
g12
g13
sg14
S'Apple Braille'
p1816
sg16
I400
sg17
g13
sg18
g13
sg19
S'/System/Library/Fonts/Apple Braille Pinpoint 8 Dot.ttf'
p1817
sg21
g22
sbag7
(g8
g9
NtRp1818
(dp1819
g12
g13
sg14
S'Minion Pro'
p1820
sg16
I500
sg17
g13
sg18
g13
sg19
S'/Library/Fonts/MinionPro-Medium.otf'
p1821
sg21
g22
sbag7
(g8
g9
NtRp1822
(dp1823
g12
g13
sg14
S'Ubuntu'
p1824
sg16
I700
sg17
g13
sg18
g13
sg19
S'/Users/peitalin/Library/Fonts/Ubuntu-B.ttf'
p1825
sg21
g22
sbag7
(g8
g9
NtRp1826
(dp1827
g12
g13
sg14
S'Apple Braille'
p1828
sg16
I400
sg17
g13
sg18
g13
sg19
S'/System/Library/Fonts/Apple Braille Outline 6 Dot.ttf'
p1829
sg21
g22
sbag7
(g8
g9
NtRp1830
(dp1831
g12
g13
sg14
S'Adobe Hebrew'
p1832
sg16
I700
sg17
g13
sg18
g13
sg19
S'/Library/Fonts/AdobeHebrew-Bold.otf'
p1833
sg21
g22
sbag7
(g8
g9
NtRp1834
(dp1835
g12
g41
sg14
S'Gill Sans MT'
p1836
sg16
I700
sg17
g13
sg18
g13
sg19
S'/Library/Fonts/Microsoft/Gill Sans MT Bold Italic.ttf'
p1837
sg21
g22
sbag7
(g8
g9
NtRp1838
(dp1839
g12
g13
sg14
S'Serto Kharput'
p1840
sg16
I400
sg17
g13
sg18
g13
sg19
S'/usr/X11/lib/X11/fonts/OTF/SyrCOMKharput.otf'
p1841
sg21
g22
sbag7
(g8
g9
NtRp1842
(dp1843
g12
g13
sg14
S'Adobe Garamond Pro'
p1844
sg16
I400
sg17
g13
sg18
g13
sg19
S'/Library/Fonts/AGaramondPro-Regular.otf'
p1845
sg21
g22
sbag7
(g8
g9
NtRp1846
(dp1847
g12
g13
sg14
S'Myriad Arabic'
p1848
sg16
I700
sg17
g13
sg18
g13
sg19
S'/Library/Fonts/MyriadArabic-Bold.otf'
p1849
sg21
g22
sbag7
(g8
g9
NtRp1850
(dp1851
g12
g13
sg14
S'Ubuntu Mono derivative Powerline'
p1852
sg16
I700
sg17
g13
sg18
g13
sg19
S'/Users/peitalin/Library/Fonts/Ubuntu Mono derivative Powerline Bold.ttf'
p1853
sg21
g22
sbag7
(g8
g9
NtRp1854
(dp1855
g12
g13
sg14
S'Chaparral Pro'
p1856
sg16
I400
sg17
g13
sg18
g13
sg19
S'/Library/Fonts/ChaparralPro-Regular.otf'
p1857
sg21
g22
sbag7
(g8
g9
NtRp1858
(dp1859
g12
g13
sg14
S'LastResort'
p1860
sg16
I400
sg17
g13
sg18
g13
sg19
S'/System/Library/Fonts/LastResort.ttf'
p1861
sg21
g22
sbag7
(g8
g9
NtRp1862
(dp1863
g12
g13
sg14
S'Apple SD Gothic Neo'
p1864
sg16
I400
sg17
g13
sg18
g13
sg19
S'/Library/Fonts/AppleSDGothicNeo-Thin.otf'
p1865
sg21
g22
sbag7
(g8
g9
NtRp1866
(dp1867
g12
g13
sg14
S'Geeza Pro'
p1868
sg16
I700
sg17
g13
sg18
g13
sg19
S'/System/Library/Fonts/Geeza Pro Bold.ttf'
p1869
sg21
g22
sbag7
(g8
g9
NtRp1870
(dp1871
g12
g13
sg14
S'STIXGeneral'
p1872
sg16
I700
sg17
g13
sg18
g13
sg19
S'/Library/Fonts/STIXGeneralBol.otf'
p1873
sg21
g22
sbag7
(g8
g9
NtRp1874
(dp1875
g12
g41
sg14
S'Constantia'
p1876
sg16
I700
sg17
g13
sg18
g13
sg19
S'/Library/Fonts/Microsoft/Constantia Bold Italic.ttf'
p1877
sg21
g22
sbag7
(g8
g9
NtRp1878
(dp1879
g12
g13
sg14
S'Franklin Gothic Book'
p1880
sg16
I400
sg17
g13
sg18
g13
sg19
S'/Library/Fonts/Microsoft/Franklin Gothic Book.ttf'
p1881
sg21
g22
sbag7
(g8
g9
NtRp1882
(dp1883
g12
g13
sg14
S'Osaka'
p1884
sg16
I400
sg17
g13
sg18
g13
sg19
S'/Library/Fonts/OsakaMono.ttf'
p1885
sg21
g22
sbag7
(g8
g9
NtRp1886
(dp1887
g12
g13
sg14
S'Kozuka Mincho Pr6N'
p1888
sg16
I400
sg17
g13
sg18
g13
sg19
S'/Library/Fonts/KozMinPr6N-ExtraLight.otf'
p1889
sg21
g22
sbag7
(g8
g9
NtRp1890
(dp1891
g12
g41
sg14
S'STIXGeneral'
p1892
sg16
I700
sg17
g13
sg18
g13
sg19
S'/Library/Fonts/STIXGeneralBolIta.otf'
p1893
sg21
g22
sbag7
(g8
g9
NtRp1894
(dp1895
g12
g13
sg14
S'Trebuchet MS'
p1896
sg16
I400
sg17
g13
sg18
g13
sg19
S'/Library/Fonts/Trebuchet MS.ttf'
p1897
sg21
g22
sbag7
(g8
g9
NtRp1898
(dp1899
g12
g13
sg14
S'Courier New'
p1900
sg16
I700
sg17
g13
sg18
g13
sg19
S'/Library/Fonts/Courier New Bold.ttf'
p1901
sg21
g22
sbag7
(g8
g9
NtRp1902
(dp1903
g12
g13
sg14
S'Adobe Fangsong Std'
p1904
sg16
I400
sg17
g13
sg18
g13
sg19
S'/Library/Fonts/AdobeFangsongStd-Regular.otf'
p1905
sg21
g22
sbag7
(g8
g9
NtRp1906
(dp1907
g12
g13
sg14
S'Herculanum'
p1908
sg16
I400
sg17
g13
sg18
g13
sg19
S'/Library/Fonts/Herculanum.ttf'
p1909
sg21
g22
sbag7
(g8
g9
NtRp1910
(dp1911
g12
g41
sg14
S'Anonymous Pro for Powerline'
p1912
sg16
I700
sg17
g13
sg18
g13
sg19
S'/Users/peitalin/Library/Fonts/Anonymice Powerline Bold Italic.ttf'
p1913
sg21
g22
sbag7
(g8
g9
NtRp1914
(dp1915
g12
g13
sg14
S'Comic Book'
p1916
sg16
I400
sg17
g13
sg18
g13
sg19
S'/Users/peitalin/Library/Fonts/Comic_Book.ttf'
p1917
sg21
g22
sbag7
(g8
g9
NtRp1918
(dp1919
g12
g41
sg14
S'Minion Pro'
p1920
sg16
I700
sg17
g13
sg18
g13
sg19
S'/Library/Fonts/MinionPro-SemiboldIt.otf'
p1921
sg21
g22
sbag7
(g8
g9
NtRp1922
(dp1923
g12
g13
sg14
S'Adobe Devanagari'
p1924
sg16
I400
sg17
g13
sg18
g13
sg19
S'/Library/Fonts/AdobeDevanagari-Regular.otf'
p1925
sg21
g22
sbag7
(g8
g9
NtRp1926
(dp1927
g12
g13
sg14
S'Estrangelo TurAbdin'
p1928
sg16
I400
sg17
g13
sg18
g13
sg19
S'/usr/X11/lib/X11/fonts/OTF/SyrCOMTurAbdin.otf'
p1929
sg21
g22
sbag7
(g8
g9
NtRp1930
(dp1931
g12
g13
sg14
S'Wingdings 2'
p1932
sg16
I400
sg17
g13
sg18
g13
sg19
S'/Library/Fonts/Wingdings 2.ttf'
p1933
sg21
g22
sbag7
(g8
g9
NtRp1934
(dp1935
g12
g13
sg14
S'MS Reference Specialty'
p1936
sg16
I400
sg17
g13
sg18
g13
sg19
S'/Library/Fonts/Microsoft/MS Reference Specialty.ttf'
p1937
sg21
g22
sbag7
(g8
g9
NtRp1938
(dp1939
g12
g13
sg14
S'Tahoma'
p1940
sg16
I400
sg17
g13
sg18
g13
sg19
S'/Library/Fonts/Tahoma.ttf'
p1941
sg21
g22
sbag7
(g8
g9
NtRp1942
(dp1943
g12
g13
sg14
S'Gill Sans MT'
p1944
sg16
I700
sg17
g13
sg18
g13
sg19
S'/Library/Fonts/Microsoft/Gill Sans MT Bold.ttf'
p1945
sg21
g22
sbag7
(g8
g9
NtRp1946
(dp1947
g12
g13
sg14
S'Hiragino Maru Gothic ProN'
p1948
sg16
I400
sg17
g13
sg18
g13
sg19
S'/Library/Fonts/\xe3\x83\x92\xe3\x83\xa9\xe3\x82\xad\xe3\x82\x99\xe3\x83\x8e\xe4\xb8\xb8\xe3\x82\xb3\xe3\x82\x99 ProN W4.otf'
p1949
sg21
g22
sbag7
(g8
g9
NtRp1950
(dp1951
g12
g41
sg14
S'Palatino Linotype'
p1952
sg16
I400
sg17
g13
sg18
g13
sg19
S'/Library/Fonts/Microsoft/Palatino Linotype Italic.ttf'
p1953
sg21
g22
sbag7
(g8
g9
NtRp1954
(dp1955
g12
g13
sg14
S'STIXSizeOneSym'
p1956
sg16
I400
sg17
g13
sg18
g13
sg19
S'/Library/Fonts/STIXSizOneSymReg.otf'
p1957
sg21
g22
sbag7
(g8
g9
NtRp1958
(dp1959
g12
g41
sg14
S'Orator Std'
p1960
sg16
I400
sg17
g13
sg18
g13
sg19
S'/Library/Fonts/OratorStd-Slanted.otf'
p1961
sg21
g22
sbag7
(g8
g9
NtRp1962
(dp1963
g12
g41
sg14
S'Myriad Hebrew'
p1964
sg16
I400
sg17
g13
sg18
g13
sg19
S'/Library/Fonts/MyriadHebrew-It.otf'
p1965
sg21
g22
sbag7
(g8
g9
NtRp1966
(dp1967
g12
g13
sg14
S'Baghdad'
p1968
sg16
I400
sg17
g13
sg18
g13
sg19
S'/Library/Fonts/Baghdad.ttf'
p1969
sg21
g22
sbag7
(g8
g9
NtRp1970
(dp1971
g12
g13
sg14
S'Microsoft Tai Le'
p1972
sg16
I400
sg17
g13
sg18
g13
sg19
S'/Library/Fonts/Microsoft/taile.ttf'
p1973
sg21
g22
sbag7
(g8
g9
NtRp1974
(dp1975
g12
g13
sg14
S'STHeiti'
p1976
sg16
I400
sg17
g13
sg18
g13
sg19
S'/Library/Fonts/\xe5\x8d\x8e\xe6\x96\x87\xe7\xbb\x86\xe9\xbb\x91.ttf'
p1977
sg21
g22
sbag7
(g8
g9
NtRp1978
(dp1979
g12
g41
sg14
S'Meiryo'
p1980
sg16
I400
sg17
g13
sg18
g13
sg19
S'/Library/Fonts/Microsoft/Meiryo Italic.ttf'
p1981
sg21
g22
sbag7
(g8
g9
NtRp1982
(dp1983
g12
g13
sg14
S'Kozuka Mincho Pro'
p1984
sg16
I400
sg17
g13
sg18
g13
sg19
S'/Library/Fonts/KozMinPro-ExtraLight.otf'
p1985
sg21
g22
sbag7
(g8
g9
NtRp1986
(dp1987
g12
g41
sg14
S'Ubuntu Mono derivative Powerline'
p1988
sg16
I700
sg17
g13
sg18
g13
sg19
S'/Users/peitalin/Library/Fonts/Ubuntu Mono derivative Powerline Bold Italic.ttf'
p1989
sg21
g22
sbag7
(g8
g9
NtRp1990
(dp1991
g12
g13
sg14
S'Apple Symbols'
p1992
sg16
I400
sg17
g13
sg18
g13
sg19
S'/System/Library/Fonts/Apple Symbols.ttf'
p1993
sg21
g22
sbag7
(g8
g9
NtRp1994
(dp1995
g12
g13
sg14
S'Hobo Std'
p1996
sg16
I500
sg17
g13
sg18
g13
sg19
S'/Library/Fonts/HoboStd.otf'
p1997
sg21
g22
sbag7
(g8
g9
NtRp1998
(dp1999
g12
g13
sg14
S'Kozuka Mincho Pr6N'
p2000
sg16
I400
sg17
g13
sg18
g13
sg19
S'/Library/Fonts/KozMinPr6N-Medium.otf'
p2001
sg21
g22
sbag7
(g8
g9
NtRp2002
(dp2003
g12
g41
sg14
S'Anonymous Pro for Powerline'
p2004
sg16
I400
sg17
g13
sg18
g13
sg19
S'/Users/peitalin/Library/Fonts/Anonymice Powerline Italic.ttf'
p2005
sg21
g22
sbag7
(g8
g9
NtRp2006
(dp2007
g12
g13
sg14
S'Raleway'
p2008
sg16
I400
sg17
g13
sg18
g13
sg19
S'/Users/peitalin/Library/Fonts/raleway_thin.otf'
p2009
sg21
g22
sbag7
(g8
g9
NtRp2010
(dp2011
g12
g13
sg14
S'Apple LiGothic'
p2012
sg16
I500
sg17
g13
sg18
g13
sg19
S'/Library/Fonts/Apple LiGothic Medium.ttf'
p2013
sg21
g22
sbag7
(g8
g9
NtRp2014
(dp2015
g12
g13
sg14
S'Calibri'
p2016
sg16
I400
sg17
g13
sg18
g13
sg19
S'/Library/Fonts/Microsoft/Calibri.ttf'
p2017
sg21
g22
sbag7
(g8
g9
NtRp2018
(dp2019
g12
g13
sg14
S'Nueva Std'
p2020
sg16
I700
sg17
g13
sg18
g13
sg19
S'/Library/Fonts/NuevaStd-Bold.otf'
p2021
sg21
g22
sbag7
(g8
g9
NtRp2022
(dp2023
g12
g13
sg14
S'Devanagari MT'
p2024
sg16
I400
sg17
g13
sg18
g13
sg19
S'/Library/Fonts/DevanagariMT.ttf'
p2025
sg21
g22
sbag7
(g8
g9
NtRp2026
(dp2027
g12
g13
sg14
S'STIXIntegralsD'
p2028
sg16
I400
sg17
g13
sg18
g13
sg19
S'/Library/Fonts/STIXIntDReg.otf'
p2029
sg21
g22
sbag7
(g8
g9
NtRp2030
(dp2031
g12
g13
sg14
S'GungSeo'
p2032
sg16
I400
sg17
g13
sg18
g13
sg19
S'/Library/Fonts/Gungseouche.ttf'
p2033
sg21
g22
sbag7
(g8
g9
NtRp2034
(dp2035
g12
g41
sg14
S'Ubuntu Mono derivative Powerline'
p2036
sg16
I400
sg17
g13
sg18
g13
sg19
S'/Users/peitalin/Library/Fonts/Ubuntu Mono derivative Powerline Italic.ttf'
p2037
sg21
g22
sbag7
(g8
g9
NtRp2038
(dp2039
g12
g13
sg14
S'Kozuka Gothic Pro'
p2040
sg16
I400
sg17
g13
sg18
g13
sg19
S'/Library/Fonts/KozGoPro-Regular.otf'
p2041
sg21
g22
sbag7
(g8
g9
NtRp2042
(dp2043
g12
g13
sg14
S'Sathu'
p2044
sg16
I400
sg17
g13
sg18
g13
sg19
S'/Library/Fonts/Sathu.ttf'
p2045
sg21
g22
sbag7
(g8
g9
NtRp2046
(dp2047
g12
g13
sg14
S'Gujarati MT'
p2048
sg16
I400
sg17
g13
sg18
g13
sg19
S'/Library/Fonts/GujaratiMT.ttf'
p2049
sg21
g22
sbag7
(g8
g9
NtRp2050
(dp2051
g12
g13
sg14
S'Apple SD Gothic Neo'
p2052
sg16
I500
sg17
g13
sg18
g13
sg19
S'/Library/Fonts/AppleSDGothicNeo-Medium.otf'
p2053
sg21
g22
sbasS'defaultFamily'
p2054
(dp2055
S'afm'
p2056
S'Helvetica'
p2057
sS'ttf'
p2058
S'Bitstream Vera Sans'
p2059
ssS'ttffiles'
p2060
(lp2061
S'/usr/local/lib/python2.7/site-packages/matplotlib/mpl-data/fonts/ttf/VeraMono.ttf'
p2062
aS'/usr/local/lib/python2.7/site-packages/matplotlib/mpl-data/fonts/ttf/cmr10.ttf'
p2063
aS'/usr/local/lib/python2.7/site-packages/matplotlib/mpl-data/fonts/ttf/STIXSizFourSymReg.ttf'
p2064
aS'/usr/local/lib/python2.7/site-packages/matplotlib/mpl-data/fonts/ttf/STIXSizTwoSymReg.ttf'
p2065
aS'/usr/local/lib/python2.7/site-packages/matplotlib/mpl-data/fonts/ttf/STIXSizThreeSymBol.ttf'
p2066
aS'/usr/local/lib/python2.7/site-packages/matplotlib/mpl-data/fonts/ttf/STIXGeneralBolIta.ttf'
p2067
aS'/usr/local/lib/python2.7/site-packages/matplotlib/mpl-data/fonts/ttf/VeraBI.ttf'
p2068
aS'/usr/local/lib/python2.7/site-packages/matplotlib/mpl-data/fonts/ttf/cmtt10.ttf'
p2069
aS'/usr/local/lib/python2.7/site-packages/matplotlib/mpl-data/fonts/ttf/STIXSizTwoSymBol.ttf'
p2070
aS'/usr/local/lib/python2.7/site-packages/matplotlib/mpl-data/fonts/ttf/STIXGeneral.ttf'
p2071
aS'/usr/local/lib/python2.7/site-packages/matplotlib/mpl-data/fonts/ttf/cmmi10.ttf'
p2072
aS'/usr/local/lib/python2.7/site-packages/matplotlib/mpl-data/fonts/ttf/STIXSizOneSymBol.ttf'
p2073
aS'/usr/local/lib/python2.7/site-packages/matplotlib/mpl-data/fonts/ttf/cmb10.ttf'
p2074
aS'/usr/local/lib/python2.7/site-packages/matplotlib/mpl-data/fonts/ttf/STIXSizThreeSymReg.ttf'
p2075
aS'/usr/local/lib/python2.7/site-packages/matplotlib/mpl-data/fonts/ttf/STIXSizFiveSymReg.ttf'
p2076
aS'/usr/local/lib/python2.7/site-packages/matplotlib/mpl-data/fonts/ttf/STIXGeneralItalic.ttf'
p2077
aS'/usr/local/lib/python2.7/site-packages/matplotlib/mpl-data/fonts/ttf/VeraBd.ttf'
p2078
aS'/usr/local/lib/python2.7/site-packages/matplotlib/mpl-data/fonts/ttf/cmss10.ttf'
p2079
aS'/usr/local/lib/python2.7/site-packages/matplotlib/mpl-data/fonts/ttf/VeraSeBd.ttf'
p2080
aS'/usr/local/lib/python2.7/site-packages/matplotlib/mpl-data/fonts/ttf/VeraMoBI.ttf'
p2081
aS'/usr/local/lib/python2.7/site-packages/matplotlib/mpl-data/fonts/ttf/VeraMoBd.ttf'
p2082
aS'/usr/local/lib/python2.7/site-packages/matplotlib/mpl-data/fonts/ttf/VeraMoIt.ttf'
p2083
aS'/usr/local/lib/python2.7/site-packages/matplotlib/mpl-data/fonts/ttf/Vera.ttf'
p2084
aS'/usr/local/lib/python2.7/site-packages/matplotlib/mpl-data/fonts/ttf/STIXNonUniBolIta.ttf'
p2085
aS'/usr/local/lib/python2.7/site-packages/matplotlib/mpl-data/fonts/ttf/STIXNonUniBol.ttf'
p2086
aS'/usr/local/lib/python2.7/site-packages/matplotlib/mpl-data/fonts/ttf/STIXSizOneSymReg.ttf'
p2087
aS'/usr/local/lib/python2.7/site-packages/matplotlib/mpl-data/fonts/ttf/STIXGeneralBol.ttf'
p2088
aS'/usr/local/lib/python2.7/site-packages/matplotlib/mpl-data/fonts/ttf/VeraIt.ttf'
p2089
aS'/usr/local/lib/python2.7/site-packages/matplotlib/mpl-data/fonts/ttf/STIXNonUni.ttf'
p2090
aS'/usr/local/lib/python2.7/site-packages/matplotlib/mpl-data/fonts/ttf/cmex10.ttf'
p2091
aS'/usr/local/lib/python2.7/site-packages/matplotlib/mpl-data/fonts/ttf/cmsy10.ttf'
p2092
aS'/usr/local/lib/python2.7/site-packages/matplotlib/mpl-data/fonts/ttf/STIXNonUniIta.ttf'
p2093
aS'/usr/local/lib/python2.7/site-packages/matplotlib/mpl-data/fonts/ttf/STIXSizFourSymBol.ttf'
p2094
aS'/usr/local/lib/python2.7/site-packages/matplotlib/mpl-data/fonts/ttf/VeraSe.ttf'
p2095
aS'/Library/Fonts/Trebuchet MS Italic.ttf'
p2096
aS'/Library/Fonts/MshtakanRegular.ttf'
p2097
aS'/Users/peitalin/Library/Fonts/Meslo LG L Regular for Powerline.otf'
p2098
aS'/Library/Fonts/MyriadPro-CondIt.otf'
p2099
aS'/Users/peitalin/Library/Fonts/coolvetica rg.otf'
p2100
aS'/Library/Fonts/PoplarStd.otf'
p2101
aS'/Users/peitalin/Library/Fonts/Literation Mono Powerline Italic.ttf'
p2102
aS'/Users/peitalin/Library/Fonts/Sauce Code Powerline Regular.otf'
p2103
aS'/Library/Fonts/KozGoPr6N-ExtraLight.otf'
p2104
aS'/Library/Fonts/Microsoft/Gill Sans MT Italic.ttf'
p2105
aS'/Library/Fonts/Times New Roman.ttf'
p2106
aS'/Users/peitalin/Library/Fonts/Literation Mono Powerline Bold.ttf'
p2107
aS'/Users/peitalin/Library/Fonts/DejaVu Sans Mono Bold for Powerline.ttf'
p2108
aS'/Library/Fonts/NISC18030.ttf'
p2109
aS'/Users/peitalin/Library/Fonts/LinBiolinum_R.otf'
p2110
aS'/Library/Fonts/AppleMyungjo.ttf'
p2111
aS'/Users/peitalin/Library/Fonts/Ubuntu-R.ttf'
p2112
aS'/Library/Fonts/Osaka.ttf'
p2113
aS'/usr/X11R6/lib/X11/fonts/TTF/Vera.ttf'
p2114
aS'/Users/peitalin/Library/Fonts/Droid Sans Mono for Powerline.otf'
p2115
aS'/Users/peitalin/Library/Fonts/Sauce Code Powerline Black.otf'
p2116
aS'/usr/X11R6/lib/X11/fonts/TTF/VeraMono.ttf'
p2117
aS'/Library/Fonts/STIXSizThreeSymBol.otf'
p2118
aS'/System/Library/Fonts/Symbol.ttf'
p2119
aS'/Users/peitalin/Library/Fonts/Futura Light BT.ttf'
p2120
aS'/usr/X11/lib/X11/fonts/OTF/SyrCOMCtesiphon.otf'
p2121
aS'/Library/Fonts/AlBayan.ttf'
p2122
aS'/Library/Fonts/Microsoft/Candara Bold.ttf'
p2123
aS'/Library/Fonts/Microsoft/Tw Cen MT.ttf'
p2124
aS'/Users/peitalin/Library/Fonts/UbuntuMono-R.ttf'
p2125
aS'/Library/Fonts/MyriadPro-It.otf'
p2126
aS'/Library/Fonts/Microsoft/Corbel Bold.ttf'
p2127
aS'/Library/Fonts/Nadeem.ttf'
p2128
aS'/Library/Fonts/AlBayanBold.ttf'
p2129
aS'/Library/Fonts/KozGoPr6N-Regular.otf'
p2130
aS'/Users/peitalin/Library/Fonts/UbuntuMono-RI.ttf'
p2131
aS'/Library/Fonts/Arial Bold Italic.ttf'
p2132
aS'/Library/Fonts/TektonPro-Bold.otf'
p2133
aS'/Users/peitalin/Library/Fonts/Sauce Code Powerline Semibold.otf'
p2134
aS'/usr/X11/lib/X11/fonts/OTF/SyrCOMBatnan.otf'
p2135
aS'/Library/Fonts/MshtakanBold.ttf'
p2136
aS'/Library/Fonts/MyriadArabic-It.otf'
p2137
aS'/Library/Fonts/NuevaStd-Italic.otf'
p2138
aS'/Library/Fonts/Microsoft/Calibril.ttf'
p2139
aS'/Library/Fonts/LetterGothicStd.otf'
p2140
aS'/Library/Fonts/STIXSizFiveSymReg.otf'
p2141
aS'/usr/X11/lib/X11/fonts/OTF/SyrCOMUrhoyBold.otf'
p2142
aS'/Library/Fonts/Gurmukhi.ttf'
p2143
aS'/Library/Fonts/Yu Gothic Bold.otf'
p2144
aS'/System/Library/Fonts/Apple Color Emoji.ttf'
p2145
aS'/Library/Fonts/Microsoft/Cambria Italic.ttf'
p2146
aS'/Library/Fonts/TektonPro-BoldObl.otf'
p2147
aS'/usr/X11/lib/X11/fonts/OTF/SyrCOMAdiabene.otf'
p2148
aS'/Library/Fonts/AdobeMyungjoStd-Medium.otf'
p2149
aS'/Library/Fonts/\xe3\x83\x92\xe3\x83\xa9\xe3\x82\xad\xe3\x82\x99\xe3\x83\x8e\xe4\xb8\xb8\xe3\x82\xb3\xe3\x82\x99 Pro W4.otf'
p2150
aS'/Library/Fonts/Microsoft/Perpetua Bold Italic.ttf'
p2151
aS'/Library/Fonts/AdobeGothicStd-Bold.otf'
p2152
aS'/usr/X11/lib/X11/fonts/OTF/SyrCOMTalada.otf'
p2153
aS'/Library/Fonts/Microsoft/Verdana Bold.ttf'
p2154
aS'/Library/Fonts/MyriadPro-Semibold.otf'
p2155
aS'/Library/Fonts/Microsoft/Verdana.ttf'
p2156
aS'/Library/Fonts/Khmer Sangam MN.ttf'
p2157
aS'/Library/Fonts/PCmyoungjo.ttf'
p2158
aS'/Library/Fonts/Microsoft/mingliu_hkscs.ttf'
p2159
aS'/Library/Fonts/KozMinPr6N-Bold.otf'
p2160
aS'/Library/Fonts/Verdana Bold Italic.ttf'
p2161
aS'/usr/X11/lib/X11/fonts/OTF/SyrCOMQenNeshrin.otf'
p2162
aS'/Users/peitalin/Library/Fonts/DejaVu Sans Mono for Powerline.ttf'
p2163
aS'/usr/X11/lib/X11/fonts/OTF/SyrCOMEdessa.otf'
p2164
aS'/Library/Fonts/Kokonor.ttf'
p2165
aS'/usr/X11/lib/X11/fonts/OTF/GohaTibebZemen.otf'
p2166
aS'/Library/Fonts/AdobeDevanagari-BoldItalic.otf'
p2167
aS'/System/Library/Fonts/Apple Braille.ttf'
p2168
aS'/Library/Fonts/\xe3\x83\x92\xe3\x83\xa9\xe3\x82\xad\xe3\x82\x99\xe3\x83\x8e\xe6\x98\x8e\xe6\x9c\x9d Pro W6.otf'
p2169
aS'/Library/Fonts/Kailasa.ttf'
p2170
aS'/Library/Fonts/STIXNonUniIta.otf'
p2171
aS'/Library/Fonts/Microsoft/MS Mincho.ttf'
p2172
aS'/Library/Fonts/TektonPro-BoldExt.otf'
p2173
aS'/Library/Fonts/ChaparralPro-Italic.otf'
p2174
aS'/Library/Fonts/Comic Sans MS Bold.ttf'
p2175
aS'/usr/X11/lib/X11/fonts/TTF/luxisr.ttf'
p2176
aS'/Library/Fonts/AGaramondPro-BoldItalic.otf'
p2177
aS'/Library/Fonts/AppleSDGothicNeo-SemiBold.otf'
p2178
aS'/Library/Fonts/STIXNonUniBol.otf'
p2179
aS'/Library/Fonts/Webdings.ttf'
p2180
aS'/System/Library/Fonts/Apple Braille Pinpoint 6 Dot.ttf'
p2181
aS'/Library/Fonts/KozMinPr6N-Heavy.otf'
p2182
aS'/usr/X11/lib/X11/fonts/TTF/VeraSeBd.ttf'
p2183
aS'/Library/Fonts/Microsoft/MingLiU_HKSCS-ExtB.ttf'
p2184
aS'/Library/Fonts/KozGoPro-Heavy.otf'
p2185
aS'/Users/peitalin/Library/Fonts/Sauce Code Powerline Medium.otf'
p2186
aS'/Library/Fonts/Microsoft/Franklin Gothic Book Italic.ttf'
p2187
aS'/usr/X11R6/lib/X11/fonts/TTF/VeraSeBd.ttf'
p2188
aS'/Users/peitalin/Library/Fonts/Anonymice Powerline Bold.ttf'
p2189
aS'/Library/Fonts/Microsoft/Palatino Linotype Bold Italic.ttf'
p2190
aS'/Library/Fonts/STIXIntUpSmReg.otf'
p2191
aS'/Library/Fonts/Microsoft/Meiryo.ttf'
p2192
aS'/Library/Fonts/MinionPro-MediumIt.otf'
p2193
aS'/Library/Fonts/KozMinPro-Regular.otf'
p2194
aS'/Library/Fonts/Kai.ttf'
p2195
aS'/Users/peitalin/Library/Fonts/Palace Script MT Std.ttf'
p2196
aS'/Library/Fonts/Courier New Italic.ttf'
p2197
aS'/Library/Fonts/Microsoft/Verdana Bold Italic.ttf'
p2198
aS'/Library/Fonts/Arial Black.ttf'
p2199
aS'/Library/Fonts/MyriadPro-SemiboldIt.otf'
p2200
aS'/usr/X11/lib/X11/fonts/TTF/luxirr.ttf'
p2201
aS'/Library/Fonts/STIXGeneralItalic.otf'
p2202
aS'/usr/X11/lib/X11/fonts/OTF/SyrCOMUrhoy.otf'
p2203
aS'/Library/Fonts/MyriadPro-BoldCondIt.otf'
p2204
aS'/usr/X11R6/lib/X11/fonts/TTF/VeraBd.ttf'
p2205
aS'/Library/Fonts/STIXSizFourSymReg.otf'
p2206
aS'/Library/Fonts/AdobeKaitiStd-Regular.otf'
p2207
aS'/Library/Fonts/Microsoft/msyi.ttf'
p2208
aS'/Library/Fonts/NuevaStd-Cond.otf'
p2209
aS'/Library/Fonts/Wingdings 3.ttf'
p2210
aS'/Library/Fonts/Microsoft/Wingdings 3.ttf'
p2211
aS'/Library/Fonts/Microsoft/Consolas.ttf'
p2212
aS'/Library/Fonts/Microsoft/Perpetua Italic.ttf'
p2213
aS'/Library/Fonts/Comic Sans MS.ttf'
p2214
aS'/Library/Fonts/KozMinPr6N-Light.otf'
p2215
aS'/Library/Fonts/Microsoft/PMingLiU.ttf'
p2216
aS'/Library/Fonts/Microsoft/Arial.ttf'
p2217
aS'/Library/Fonts/STIXSizFourSymBol.otf'
p2218
aS'/Library/Fonts/KozGoPr6N-Medium.otf'
p2219
aS'/Library/Fonts/Microsoft/Marlett.ttf'
p2220
aS'/Library/Fonts/Microsoft/Calibri Bold.ttf'
p2221
aS'/Library/Fonts/YuppySC-Regular.otf'
p2222
aS'/Library/Fonts/Georgia Italic.ttf'
p2223
aS'/Library/Fonts/Wingdings.ttf'
p2224
aS'/Library/Fonts/Impact.ttf'
p2225
aS'/Library/Fonts/Tahoma Bold.ttf'
p2226
aS'/Library/Fonts/Georgia Bold Italic.ttf'
p2227
aS'/Library/Fonts/TektonPro-BoldCond.otf'
p2228
aS'/usr/X11R6/lib/X11/fonts/TTF/VeraMoBd.ttf'
p2229
aS'/Library/Fonts/MyriadArabic-BoldIt.otf'
p2230
aS'/usr/X11/lib/X11/fonts/TTF/luximbi.ttf'
p2231
aS'/Library/Fonts/Hoefler Text Ornaments.ttf'
p2232
aS'/Library/Fonts/ChaparralPro-LightIt.otf'
p2233
aS'/Library/Fonts/AdobeArabic-Italic.otf'
p2234
aS'/System/Library/Fonts/\xe3\x83\x92\xe3\x83\xa9\xe3\x82\xad\xe3\x82\x99\xe3\x83\x8e\xe6\x98\x8e\xe6\x9c\x9d ProN W6.otf'
p2235
aS'/Library/Fonts/RosewoodStd-Regular.otf'
p2236
aS'/Library/Fonts/AdobeArabic-Bold.otf'
p2237
aS'/Library/Fonts/Pilgiche.ttf'
p2238
aS'/Library/Fonts/Microsoft/Gill Sans MT.ttf'
p2239
aS'/Library/Fonts/MyriadArabic-Regular.otf'
p2240
aS'/Library/Fonts/Microsoft/Constantia.ttf'
p2241
aS'/Library/Fonts/Microsoft/Verdana Italic.ttf'
p2242
aS'/Library/Fonts/Yu Gothic Medium.otf'
p2243
aS'/Library/Fonts/GujaratiMTBold.ttf'
p2244
aS'/Library/Fonts/LetterGothicStd-BoldSlanted.otf'
p2245
aS'/usr/X11/lib/X11/fonts/TTF/luximb.ttf'
p2246
aS'/Library/Fonts/NuevaStd-CondItalic.otf'
p2247
aS'/Library/Fonts/Microsoft/Arial Italic.ttf'
p2248
aS'/usr/X11/lib/X11/fonts/TTF/luxisri.ttf'
p2249
aS'/System/Library/Fonts/ZapfDingbats.ttf'
p2250
aS'/Library/Fonts/Microsoft/Calibri Bold Italic.ttf'
p2251
aS'/Library/Fonts/Apple LiSung Light.ttf'
p2252
aS'/Library/Fonts/Microsoft/Corbel Bold Italic.ttf'
p2253
aS'/Library/Fonts/AGaramondPro-Bold.otf'
p2254
aS'/Library/Fonts/StencilStd.otf'
p2255
aS'/Library/Fonts/MyriadPro-Regular.otf'
p2256
aS'/Library/Fonts/MyriadPro-Cond.otf'
p2257
aS'/Users/peitalin/Library/Fonts/Ubuntu-RI.ttf'
p2258
aS'/Library/Fonts/Trebuchet MS Bold Italic.ttf'
p2259
aS'/Library/Fonts/STIXIntSmBol.otf'
p2260
aS'/Library/Fonts/AdobeMingStd-Light.otf'
p2261
aS'/Users/peitalin/Library/Fonts/Raleway-ExtraLight.ttf'
p2262
aS'/Library/Fonts/Microsoft/Meiryo Bold.ttf'
p2263
aS'/Library/Fonts/CooperBlackStd.otf'
p2264
aS'/Library/Fonts/Verdana Italic.ttf'
p2265
aS'/Library/Fonts/KozGoPro-ExtraLight.otf'
p2266
aS'/Users/peitalin/Library/Fonts/Anonymice Powerline.ttf'
p2267
aS'/Library/Fonts/Microsoft/Tw Cen MT Italic.ttf'
p2268
aS'/Library/Fonts/Microsoft/Bookshelf Symbol 7.ttf'
p2269
aS'/Library/Fonts/ChaparralPro-BoldIt.otf'
p2270
aS'/Users/peitalin/Library/Fonts/CaviarDreams.ttf'
p2271
aS'/Users/peitalin/Library/Fonts/Ubuntu-M.ttf'
p2272
aS'/Library/Fonts/Microsoft/Consolas Bold.ttf'
p2273
aS'/usr/X11/lib/X11/fonts/TTF/VeraIt.ttf'
p2274
aS'/Users/peitalin/Library/Fonts/Andes.ttf'
p2275
aS'/Library/Fonts/AdobeSongStd-Light.otf'
p2276
aS'/Library/Fonts/Hiragino Sans GB W3.otf'
p2277
aS'/usr/X11R6/lib/X11/fonts/TTF/luxirb.ttf'
p2278
aS'/Users/peitalin/Library/Fonts/Raleway-Regular.ttf'
p2279
aS'/Users/peitalin/Library/Fonts/Literation Mono Powerline.ttf'
p2280
aS'/Library/Fonts/AdobeHebrew-BoldItalic.otf'
p2281
aS'/Users/peitalin/Library/Fonts/UbuntuMono-B.ttf'
p2282
aS'/Library/Fonts/Verdana.ttf'
p2283
aS'/usr/X11/lib/X11/fonts/TTF/luxisb.ttf'
p2284
aS'/Library/Fonts/STIXNonUni.otf'
p2285
aS'/Library/Fonts/Arial Italic.ttf'
p2286
aS'/Library/Fonts/Trebuchet MS Bold.ttf'
p2287
aS'/Library/Fonts/\xe5\x84\xb7\xe5\xae\x8b Pro.ttf'
p2288
aS'/Library/Fonts/STIXNonUniBolIta.otf'
p2289
aS'/Library/Fonts/AdobeDevanagari-Bold.otf'
p2290
aS'/Library/Fonts/BrushScriptStd.otf'
p2291
aS'/Library/Fonts/WawaSC-Regular.otf'
p2292
aS'/Library/Fonts/Microsoft/SimHei.ttf'
p2293
aS'/usr/X11R6/lib/X11/fonts/TTF/luxirbi.ttf'
p2294
aS'/Library/Fonts/AppleSDGothicNeo-Light.otf'
p2295
aS'/Users/peitalin/Library/Fonts/Meslo LG L DZ Regular for Powerline.otf'
p2296
aS'/Library/Fonts/ACaslonPro-Bold.otf'
p2297
aS'/Users/peitalin/Library/Fonts/Inconsolata-dz for Powerline.otf'
p2298
aS'/Library/Fonts/STIXIntSmReg.otf'
p2299
aS'/Library/Fonts/MyriadPro-BoldCond.otf'
p2300
aS'/Library/Fonts/ACaslonPro-Italic.otf'
p2301
aS'/Library/Fonts/Georgia Bold.ttf'
p2302
aS'/Library/Fonts/Chalkduster.ttf'
p2303
aS'/usr/X11/lib/X11/fonts/OTF/SyrCOMAntioch.otf'
p2304
aS'/Library/Fonts/WeibeiTC-Bold.otf'
p2305
aS'/Users/peitalin/Library/Fonts/LinBiolinum_RI.otf'
p2306
aS'/usr/X11/lib/X11/fonts/OTF/SyrCOMBatnanBold.otf'
p2307
aS'/Library/Fonts/MinionPro-BoldIt.otf'
p2308
aS'/usr/X11/lib/X11/fonts/OTF/SyrCOMJerusalemBold.otf'
p2309
aS'/usr/X11/lib/X11/fonts/TTF/VeraMoBI.ttf'
p2310
aS'/Library/Fonts/ACaslonPro-Regular.otf'
p2311
aS'/Library/Fonts/STIXIntUpReg.otf'
p2312
aS'/Library/Fonts/MesquiteStd.otf'
p2313
aS'/Library/Fonts/BigCaslon.ttf'
p2314
aS'/Library/Fonts/AdobeHebrew-Italic.otf'
p2315
aS'/Library/Fonts/Ayuthaya.ttf'
p2316
aS'/Library/Fonts/OratorStd.otf'
p2317
aS'/Library/Fonts/BlackoakStd.otf'
p2318
aS'/Library/Fonts/\xe3\x83\x92\xe3\x83\xa9\xe3\x82\xad\xe3\x82\x99\xe3\x83\x8e\xe8\xa7\x92\xe3\x82\xb3\xe3\x82\x99 Pro W6.otf'
p2319
aS'/Library/Fonts/MinionPro-It.otf'
p2320
aS'/Library/Fonts/Microsoft/Arial Bold Italic.ttf'
p2321
aS'/Library/Fonts/MinionPro-Bold.otf'
p2322
aS'/Library/Fonts/Yu Mincho Medium.otf'
p2323
aS'/Users/peitalin/Library/Fonts/LinBiolinum_R.ttf'
p2324
aS'/Users/peitalin/Library/Fonts/Inconsolata for Powerline.otf'
p2325
aS'/Library/Fonts/MinionPro-BoldCnIt.otf'
p2326
aS'/Library/Fonts/Andale Mono.ttf'
p2327
aS'/Library/Fonts/Microsoft/Consolas Italic.ttf'
p2328
aS'/Library/Fonts/LetterGothicStd-Bold.otf'
p2329
aS'/Library/Fonts/Silom.ttf'
p2330
aS'/Library/Fonts/MshtakanBoldOblique.ttf'
p2331
aS'/usr/X11R6/lib/X11/fonts/TTF/luxisri.ttf'
p2332
aS'/Users/peitalin/Library/Fonts/Sauce Code Powerline ExtraLight.otf'
p2333
aS'/usr/X11/lib/X11/fonts/TTF/luximr.ttf'
p2334
aS'/Users/peitalin/Library/Fonts/Meslo LG M Regular for Powerline.otf'
p2335
aS'/Library/Fonts/Microsoft/Calibri Italic.ttf'
p2336
aS'/Library/Fonts/Microsoft/Candara.ttf'
p2337
aS'/Library/Fonts/Microsoft/MingLiU.ttf'
p2338
aS'/Library/Fonts/Microsoft/Gulim.ttf'
p2339
aS'/Library/Fonts/Lao Sangam MN.ttf'
p2340
aS'/usr/X11R6/lib/X11/fonts/TTF/GohaTibebZemen.ttf'
p2341
aS'/Library/Fonts/KufiStandardGK.ttf'
p2342
aS'/Library/Fonts/Hei.ttf'
p2343
aS'/Users/peitalin/Library/Fonts/Anonymous_Pro.ttf'
p2344
aS'/Library/Fonts/Microsoft/Cambria Bold Italic.ttf'
p2345
aS'/Library/Fonts/Microsoft/Gabriola.ttf'
p2346
aS'/System/Library/Fonts/\xe3\x83\x92\xe3\x83\xa9\xe3\x82\xad\xe3\x82\x99\xe3\x83\x8e\xe6\x98\x8e\xe6\x9c\x9d ProN W3.otf'
p2347
aS'/Library/Fonts/ACaslonPro-BoldItalic.otf'
p2348
aS'/Library/Fonts/ACaslonPro-SemiboldItalic.otf'
p2349
aS'/Users/peitalin/Library/Fonts/Raleway-SemiBold.ttf'
p2350
aS'/Users/peitalin/Library/Fonts/DejaVu Sans Mono Bold Oblique for Powerline.ttf'
p2351
aS'/Users/peitalin/Library/Fonts/Raleway-Light.ttf'
p2352
aS'/Users/peitalin/Library/Fonts/CaviarDreams_Italic.ttf'
p2353
aS'/Users/peitalin/Library/Fonts/Anonymous_Pro_I.ttf'
p2354
aS'/Library/Fonts/AdobeNaskh-Medium.otf'
p2355
aS'/usr/X11R6/lib/X11/fonts/TTF/VeraBI.ttf'
p2356
aS'/Library/Fonts/OCRAStd.otf'
p2357
aS'/Library/Fonts/Verdana Bold.ttf'
p2358
aS'/Library/Fonts/STIXSizThreeSymReg.otf'
p2359
aS'/Library/Fonts/DIN Condensed Bold.ttf'
p2360
aS'/usr/X11R6/lib/X11/fonts/TTF/luxirri.ttf'
p2361
aS'/Library/Fonts/Microsoft/himalaya.ttf'
p2362
aS'/Users/peitalin/Library/Fonts/Literation Mono Powerline Bold Italic.ttf'
p2363
aS'/usr/X11/lib/X11/fonts/OTF/SyrCOMNisibin.otf'
p2364
aS'/Users/peitalin/Library/Fonts/Meslo LG M DZ Regular for Powerline.otf'
p2365
aS'/Library/Fonts/Arial.ttf'
p2366
aS'/Library/Fonts/AppleGothic.ttf'
p2367
aS'/Library/Fonts/Arial Narrow.ttf'
p2368
aS'/System/Library/Fonts/AppleSDGothicNeo-Bold.otf'
p2369
aS'/Library/Fonts/MshtakanOblique.ttf'
p2370
aS'/Users/peitalin/Library/Fonts/Ubuntu-LI.ttf'
p2371
aS'/Library/Fonts/Microsoft/Times New Roman Italic.ttf'
p2372
aS'/Library/Fonts/Microsoft/Times New Roman.ttf'
p2373
aS'/Library/Fonts/Microsoft/PMingLiU-ExtB.ttf'
p2374
aS'/Users/peitalin/Library/Fonts/Meslo LG S Regular for Powerline.otf'
p2375
aS'/usr/X11/lib/X11/fonts/TTF/luximri.ttf'
p2376
aS'/usr/X11R6/lib/X11/fonts/TTF/VeraMoIt.ttf'
p2377
aS'/usr/X11/lib/X11/fonts/OTF/SyrCOMMardinBold.otf'
p2378
aS'/Library/Fonts/Myanmar Sangam MN.ttf'
p2379
aS'/Users/peitalin/Library/Fonts/Ubuntu-BI.ttf'
p2380
aS'/Library/Fonts/Arial Narrow Bold.ttf'
p2381
aS'/Library/Fonts/Times New Roman Italic.ttf'
p2382
aS'/Library/Fonts/Georgia.ttf'
p2383
aS'/Library/Fonts/NuevaStd-BoldCondItalic.otf'
p2384
aS'/Library/Fonts/CharlemagneStd-Bold.otf'
p2385
aS'/Library/Fonts/PrestigeEliteStd-Bd.otf'
p2386
aS'/Library/Fonts/Microsoft/Constantia Bold.ttf'
p2387
aS'/Library/Fonts/MinionPro-Regular.otf'
p2388
aS'/usr/X11/lib/X11/fonts/TTF/luxirb.ttf'
p2389
aS'/Library/Fonts/Times New Roman Bold Italic.ttf'
p2390
aS'/Users/peitalin/Library/Fonts/LinBiolinum_aS.ttf'
p2391
aS'/Library/Fonts/Arial Narrow Italic.ttf'
p2392
aS'/Library/Fonts/\xe5\x84\xb7\xe9\xbb\x91 Pro.ttf'
p2393
aS'/usr/X11/lib/X11/fonts/TTF/VeraMono.ttf'
p2394
aS'/System/Library/Fonts/AppleSDGothicNeo-Regular.otf'
p2395
aS'/Library/Fonts/Microsoft/Arial Bold.ttf'
p2396
aS'/Library/Fonts/Microsoft/Tw Cen MT Bold.ttf'
p2397
aS'/Library/Fonts/PlantagenetCherokee.ttf'
p2398
aS'/Library/Fonts/BiauKai.ttf'
p2399
aS'/Library/Fonts/Microsoft/Brush Script.ttf'
p2400
aS'/Library/Fonts/Microsoft/Tw Cen MT Bold Italic.ttf'
p2401
aS'/Library/Fonts/STIXVar.otf'
p2402
aS'/Library/Fonts/Microsoft/Candara Bold Italic.ttf'
p2403
aS'/Users/peitalin/Library/Fonts/Ubuntu-MI.ttf'
p2404
aS'/System/Library/Fonts/\xe3\x83\x92\xe3\x83\xa9\xe3\x82\xad\xe3\x82\x99\xe3\x83\x8e\xe8\xa7\x92\xe3\x82\xb3\xe3\x82\x99 ProN W6.otf'
p2405
aS'/Library/Fonts/LithosPro-Black.otf'
p2406
aS'/Library/Fonts/BirchStd.otf'
p2407
aS'/Library/Fonts/Microsoft/Cambria Math.ttf'
p2408
aS'/Library/Fonts/Skia.ttf'
p2409
aS'/Library/Fonts/KozGoPr6N-Bold.otf'
p2410
aS'/Library/Fonts/AdobeArabic-Regular.otf'
p2411
aS'/usr/X11R6/lib/X11/fonts/TTF/luxisbi.ttf'
p2412
aS'/Library/Fonts/KozMinPro-Heavy.otf'
p2413
aS'/Library/Fonts/Yu Mincho Demibold.otf'
p2414
aS'/Library/Fonts/\xe5\x8d\x8e\xe6\x96\x87\xe4\xbb\xbf\xe5\xae\x8b.ttf'
p2415
aS'/Library/Fonts/Microsoft/Lucida Console.ttf'
p2416
aS'/Library/Fonts/LithosPro-Regular.otf'
p2417
aS'/usr/X11/lib/X11/fonts/TTF/VeraMoBd.ttf'
p2418
aS'/Library/Fonts/TrajanPro-Regular.otf'
p2419
aS'/Library/Fonts/KozMinPro-Bold.otf'
p2420
aS'/Library/Fonts/Microsoft/Perpetua.ttf'
p2421
aS'/Library/Fonts/NuevaStd-BoldCond.otf'
p2422
aS'/Library/Fonts/Microsoft/Cambria Bold.ttf'
p2423
aS'/Users/peitalin/Library/Fonts/Sauce Code Powerline Bold.otf'
p2424
aS'/Library/Fonts/Courier New Bold Italic.ttf'
p2425
aS'/usr/X11/lib/X11/fonts/TTF/VeraBd.ttf'
p2426
aS'/Library/Fonts/Arial Rounded Bold.ttf'
p2427
aS'/Library/Fonts/DevanagariMTBold.ttf'
p2428
aS'/Library/Fonts/TrajanPro-Bold.otf'
p2429
aS'/Library/Fonts/AdobeArabic-BoldItalic.otf'
p2430
aS'/Users/peitalin/Library/Fonts/Anonymous_Pro_BI.ttf'
p2431
aS'/Library/Fonts/KozGoPr6N-Light.otf'
p2432
aS'/Library/Fonts/Microsoft/MingLiU-ExtB.ttf'
p2433
aS'/Library/Fonts/Microsoft/Franklin Gothic Medium Italic.ttf'
p2434
aS'/Library/Fonts/KozMinPro-Medium.otf'
p2435
aS'/usr/X11R6/lib/X11/fonts/TTF/VeraIt.ttf'
p2436
aS'/Library/Fonts/Microsoft/Constantia Italic.ttf'
p2437
aS'/Library/Fonts/InaiMathi.ttf'
p2438
aS'/Library/Fonts/Microsoft/Cambria.ttf'
p2439
aS'/Library/Fonts/Microsoft/Perpetua Bold.ttf'
p2440
aS'/Users/peitalin/Library/Fonts/UbuntuMono-BI.ttf'
p2441
aS'/Library/Fonts/Microsoft/Batang.ttf'
p2442
aS'/Library/Fonts/KozGoPro-Light.otf'
p2443
aS'/usr/X11R6/lib/X11/fonts/TTF/luxirr.ttf'
p2444
aS'/Library/Fonts/MinionPro-Semibold.otf'
p2445
aS'/Users/peitalin/Library/Fonts/Humor-Sans-1.0.ttf'
p2446
aS'/Library/Fonts/LetterGothicStd-Slanted.otf'
p2447
aS'/Library/Fonts/DecoTypeNaskh.ttf'
p2448
aS'/Users/peitalin/Library/Fonts/Ubuntu Mono derivative Powerline.ttf'
p2449
aS'/Library/Fonts/MyriadPro-BoldIt.otf'
p2450
aS'/Library/Fonts/HeadlineA.ttf'
p2451
aS'/System/Library/Fonts/Keyboard.ttf'
p2452
aS'/Library/Fonts/\xe3\x83\x92\xe3\x83\xa9\xe3\x82\xad\xe3\x82\x99\xe3\x83\x8e\xe8\xa7\x92\xe3\x82\xb3\xe3\x82\x99 Std W8.otf'
p2453
aS'/Library/Fonts/Microsoft/Lucida Sans Unicode.ttf'
p2454
aS'/Library/Fonts/Hiragino Sans GB W6.otf'
p2455
aS'/System/Library/Fonts/Geeza Pro.ttf'
p2456
aS'/usr/X11R6/lib/X11/fonts/TTF/luximbi.ttf'
p2457
aS'/Library/Fonts/Microsoft/Consolas Bold Italic.ttf'
p2458
aS'/Library/Fonts/Microsoft Sans Serif.ttf'
p2459
aS'/Library/Fonts/STIXIntUpDBol.otf'
p2460
aS'/Library/Fonts/MyriadPro-Bold.otf'
p2461
aS'/Library/Fonts/STIXGeneral.otf'
p2462
aS'/usr/X11R6/lib/X11/fonts/TTF/luxisb.ttf'
p2463
aS'/Library/Fonts/\xe3\x83\x92\xe3\x83\xa9\xe3\x82\xad\xe3\x82\x99\xe3\x83\x8e\xe8\xa7\x92\xe3\x82\xb3\xe3\x82\x99 Pro W3.otf'
p2464
aS'/Library/Fonts/GiddyupStd.otf'
p2465
aS'/Library/Fonts/YuppyTC-Regular.otf'
p2466
aS'/Library/Fonts/Apple Chancery.ttf'
p2467
aS'/usr/X11/lib/X11/fonts/TTF/Vera.ttf'
p2468
aS'/Users/peitalin/Library/Fonts/DejaVu Sans Mono Oblique for Powerline.ttf'
p2469
aS'/Library/Fonts/STIXIntUpSmBol.otf'
p2470
aS'/Library/Fonts/MyriadHebrew-BoldIt.otf'
p2471
aS'/usr/X11R6/lib/X11/fonts/TTF/luxisr.ttf'
p2472
aS'/Library/Fonts/STIXSizOneSymBol.otf'
p2473
aS'/Library/Fonts/Microsoft/SimSun-ExtB.ttf'
p2474
aS'/Library/Fonts/Microsoft/Palatino Linotype.ttf'
p2475
aS'/Library/Fonts/AdobeHebrew-Regular.otf'
p2476
aS'/Library/Fonts/STIXSizTwoSymReg.otf'
p2477
aS'/Users/peitalin/Library/Fonts/Ubuntu-L.ttf'
p2478
aS'/Library/Fonts/WeibeiSC-Bold.otf'
p2479
aS'/Library/Fonts/Arial Bold.ttf'
p2480
aS'/Library/Fonts/Microsoft/MS PGothic.ttf'
p2481
aS'/usr/X11/lib/X11/fonts/OTF/SyrCOMJerusalemItalic.otf'
p2482
aS'/Users/peitalin/Library/Fonts/Meslo LG S DZ Regular for Powerline.otf'
p2483
aS'/Library/Fonts/Microsoft/TaiLeb.ttf'
p2484
aS'/Library/Fonts/STIXIntUpDReg.otf'
p2485
aS'/Users/peitalin/Library/Fonts/Raleway-Medium.ttf'
p2486
aS'/usr/X11R6/lib/X11/fonts/TTF/luximri.ttf'
p2487
aS'/Library/Fonts/Microsoft/Meiryo Bold Italic.ttf'
p2488
aS'/Library/Fonts/KozGoPro-Bold.otf'
p2489
aS'/Library/Fonts/Microsoft/Candara Italic.ttf'
p2490
aS'/Library/Fonts/KozGoPro-Medium.otf'
p2491
aS'/Library/Fonts/AppleSDGothicNeo-UltraLight.otf'
p2492
aS'/Library/Fonts/Arial Unicode.ttf'
p2493
aS'/usr/X11/lib/X11/fonts/TTF/VeraSe.ttf'
p2494
aS'/Library/Fonts/AdobeHeitiStd-Regular.otf'
p2495
aS'/usr/X11R6/lib/X11/fonts/TTF/VeraMoBI.ttf'
p2496
aS'/Library/Fonts/KozGoPr6N-Heavy.otf'
p2497
aS'/Library/Fonts/AdobeDevanagari-Italic.otf'
p2498
aS'/Library/Fonts/AppleSDGothicNeo-Heavy.otf'
p2499
aS'/Library/Fonts/MyriadHebrew-Regular.otf'
p2500
aS'/Library/Fonts/Microsoft/Times New Roman Bold.ttf'
p2501
aS'/Library/Fonts/KozMinPr6N-Regular.otf'
p2502
aS'/Users/peitalin/Library/Fonts/CaviarDreams_BoldItalic.ttf'
p2503
aS'/Library/Fonts/AdobeFanHeitiStd-Bold.otf'
p2504
aS'/usr/X11/lib/X11/fonts/OTF/SyrCOMJerusalemOutline.otf'
p2505
aS'/Library/Fonts/STIXIntDBol.otf'
p2506
aS'/Library/Fonts/ChaparralPro-Bold.otf'
p2507
aS'/Library/Fonts/DIN Alternate Bold.ttf'
p2508
aS'/Library/Fonts/Courier New.ttf'
p2509
aS'/Library/Fonts/Arial Narrow Bold Italic.ttf'
p2510
aS'/usr/X11/lib/X11/fonts/OTF/SyrCOMJerusalem.otf'
p2511
aS'/Library/Fonts/Zapfino.ttf'
p2512
aS'/Library/Fonts/Krungthep.ttf'
p2513
aS'/Library/Fonts/AppleSDGothicNeo-ExtraBold.otf'
p2514
aS'/Library/Fonts/Microsoft/Times New Roman Bold Italic.ttf'
p2515
aS'/Library/Fonts/Microsoft/monbaiti.ttf'
p2516
aS'/Library/Fonts/Microsoft/Franklin Gothic Medium.ttf'
p2517
aS'/usr/X11/lib/X11/fonts/TTF/VeraMoIt.ttf'
p2518
aS'/Users/peitalin/Library/Fonts/Caviar Dreams Bold.ttf'
p2519
aS'/Library/Fonts/MyriadHebrew-Bold.otf'
p2520
aS'/Library/Fonts/CooperBlackStd-Italic.otf'
p2521
aS'/Library/Fonts/MinionPro-BoldCn.otf'
p2522
aS'/System/Library/Fonts/\xe3\x83\x92\xe3\x83\xa9\xe3\x82\xad\xe3\x82\x99\xe3\x83\x8e\xe8\xa7\x92\xe3\x82\xb3\xe3\x82\x99 ProN W3.otf'
p2523
aS'/Library/Fonts/\xe5\x8d\x8e\xe6\x96\x87\xe9\xbb\x91\xe4\xbd\x93.ttf'
p2524
aS'/usr/X11/lib/X11/fonts/OTF/SyrCOMMidyat.otf'
p2525
aS'/System/Library/Fonts/Apple Braille Outline 8 Dot.ttf'
p2526
aS'/Library/Fonts/KozMinPro-Light.otf'
p2527
aS'/Library/Fonts/Times New Roman Bold.ttf'
p2528
aS'/Library/Fonts/Microsoft/Corbel Italic.ttf'
p2529
aS'/usr/X11/lib/X11/fonts/TTF/GohaTibebZemen.ttf'
p2530
aS'/Library/Fonts/Microsoft/Palatino Linotype Bold.ttf'
p2531
aS'/Library/Fonts/AGaramondPro-Italic.otf'
p2532
aS'/Library/Fonts/STIXVarBol.otf'
p2533
aS'/usr/X11/lib/X11/fonts/OTF/SyrCOMMalankara.otf'
p2534
aS'/Users/peitalin/Library/Fonts/Sauce Code Powerline Light.otf'
p2535
aS'/Library/Fonts/\xe3\x83\x92\xe3\x83\xa9\xe3\x82\xad\xe3\x82\x99\xe3\x83\x8e\xe8\xa7\x92\xe3\x82\xb3\xe3\x82\x99 StdN W8.otf'
p2536
aS'/Users/peitalin/Library/Fonts/Anonymous_Pro_B.ttf'
p2537
aS'/Library/Fonts/Microsoft/MS Gothic.ttf'
p2538
aS'/Library/Fonts/Microsoft/MS PMincho.ttf'
p2539
aS'/Library/Fonts/STIXIntUpBol.otf'
p2540
aS'/Library/Fonts/WawaTC-Regular.otf'
p2541
aS'/Library/Fonts/Microsoft/MS Reference Sans Serif.ttf'
p2542
aS'/Library/Fonts/STIXSizTwoSymBol.otf'
p2543
aS'/Library/Fonts/\xe3\x83\x92\xe3\x83\xa9\xe3\x82\xad\xe3\x82\x99\xe3\x83\x8e\xe6\x98\x8e\xe6\x9c\x9d Pro W3.otf'
p2544
aS'/Library/Fonts/Microsoft/Corbel.ttf'
p2545
aS'/Library/Fonts/ACaslonPro-Semibold.otf'
p2546
aS'/usr/X11/lib/X11/fonts/OTF/SyrCOMMardin.otf'
p2547
aS'/usr/X11/lib/X11/fonts/TTF/luxirbi.ttf'
p2548
aS'/Users/peitalin/Library/Fonts/Ubuntu-C.ttf'
p2549
aS'/usr/X11/lib/X11/fonts/OTF/SyrCOMNisibinOutline.otf'
p2550
aS'/Library/Fonts/Microsoft/SimSun.ttf'
p2551
aS'/System/Library/Fonts/Apple Braille Pinpoint 8 Dot.ttf'
p2552
aS'/Library/Fonts/MinionPro-Medium.otf'
p2553
aS'/Users/peitalin/Library/Fonts/Ubuntu-B.ttf'
p2554
aS'/System/Library/Fonts/Apple Braille Outline 6 Dot.ttf'
p2555
aS'/Library/Fonts/AdobeHebrew-Bold.otf'
p2556
aS'/Library/Fonts/Microsoft/Gill Sans MT Bold Italic.ttf'
p2557
aS'/usr/X11/lib/X11/fonts/OTF/SyrCOMKharput.otf'
p2558
aS'/Library/Fonts/AGaramondPro-Regular.otf'
p2559
aS'/Library/Fonts/MyriadArabic-Bold.otf'
p2560
aS'/Users/peitalin/Library/Fonts/Ubuntu Mono derivative Powerline Bold.ttf'
p2561
aS'/usr/X11/lib/X11/fonts/TTF/luxirri.ttf'
p2562
aS'/Library/Fonts/ChaparralPro-Regular.otf'
p2563
aS'/System/Library/Fonts/LastResort.ttf'
p2564
aS'/Library/Fonts/AppleSDGothicNeo-Thin.otf'
p2565
aS'/System/Library/Fonts/Geeza Pro Bold.ttf'
p2566
aS'/Library/Fonts/STIXGeneralBol.otf'
p2567
aS'/Library/Fonts/Microsoft/Constantia Bold Italic.ttf'
p2568
aS'/Library/Fonts/Microsoft/Franklin Gothic Book.ttf'
p2569
aS'/Library/Fonts/OsakaMono.ttf'
p2570
aS'/Library/Fonts/KozMinPr6N-ExtraLight.otf'
p2571
aS'/Library/Fonts/STIXGeneralBolIta.otf'
p2572
aS'/Library/Fonts/Trebuchet MS.ttf'
p2573
aS'/usr/X11/lib/X11/fonts/TTF/VeraBI.ttf'
p2574
aS'/Library/Fonts/Courier New Bold.ttf'
p2575
aS'/Library/Fonts/AdobeFangsongStd-Regular.otf'
p2576
aS'/Library/Fonts/Herculanum.ttf'
p2577
aS'/Library/Fonts/Microsoft/Wingdings.ttf'
p2578
aS'/Users/peitalin/Library/Fonts/Anonymice Powerline Bold Italic.ttf'
p2579
aS'/Users/peitalin/Library/Fonts/Comic_Book.ttf'
p2580
aS'/Library/Fonts/MinionPro-SemiboldIt.otf'
p2581
aS'/Library/Fonts/AdobeDevanagari-Regular.otf'
p2582
aS'/usr/X11/lib/X11/fonts/OTF/SyrCOMTurAbdin.otf'
p2583
aS'/Library/Fonts/Wingdings 2.ttf'
p2584
aS'/Library/Fonts/Microsoft/MS Reference Specialty.ttf'
p2585
aS'/Library/Fonts/Tahoma.ttf'
p2586
aS'/Library/Fonts/Brush Script.ttf'
p2587
aS'/Library/Fonts/Microsoft/Gill Sans MT Bold.ttf'
p2588
aS'/Library/Fonts/\xe3\x83\x92\xe3\x83\xa9\xe3\x82\xad\xe3\x82\x99\xe3\x83\x8e\xe4\xb8\xb8\xe3\x82\xb3\xe3\x82\x99 ProN W4.otf'
p2589
aS'/Library/Fonts/Microsoft/Palatino Linotype Italic.ttf'
p2590
aS'/Library/Fonts/STIXSizOneSymReg.otf'
p2591
aS'/Library/Fonts/OratorStd-Slanted.otf'
p2592
aS'/Library/Fonts/MyriadHebrew-It.otf'
p2593
aS'/usr/X11R6/lib/X11/fonts/TTF/luximr.ttf'
p2594
aS'/Library/Fonts/Microsoft/Wingdings 2.ttf'
p2595
aS'/Library/Fonts/Baghdad.ttf'
p2596
aS'/Library/Fonts/Microsoft/taile.ttf'
p2597
aS'/Library/Fonts/\xe5\x8d\x8e\xe6\x96\x87\xe7\xbb\x86\xe9\xbb\x91.ttf'
p2598
aS'/usr/X11R6/lib/X11/fonts/TTF/luximb.ttf'
p2599
aS'/Library/Fonts/Microsoft/Meiryo Italic.ttf'
p2600
aS'/Library/Fonts/KozMinPro-ExtraLight.otf'
p2601
aS'/Users/peitalin/Library/Fonts/Ubuntu Mono derivative Powerline Bold Italic.ttf'
p2602
aS'/System/Library/Fonts/Apple Symbols.ttf'
p2603
aS'/Library/Fonts/HoboStd.otf'
p2604
aS'/usr/X11R6/lib/X11/fonts/TTF/VeraSe.ttf'
p2605
aS'/Library/Fonts/KozMinPr6N-Medium.otf'
p2606
aS'/Users/peitalin/Library/Fonts/Anonymice Powerline Italic.ttf'
p2607
aS'/Users/peitalin/Library/Fonts/raleway_thin.otf'
p2608
aS'/Library/Fonts/Apple LiGothic Medium.ttf'
p2609
aS'/Library/Fonts/Microsoft/Calibri.ttf'
p2610
aS'/Library/Fonts/NuevaStd-Bold.otf'
p2611
aS'/Library/Fonts/DevanagariMT.ttf'
p2612
aS'/Library/Fonts/STIXIntDReg.otf'
p2613
aS'/Library/Fonts/Gungseouche.ttf'
p2614
aS'/usr/X11/lib/X11/fonts/TTF/luxisbi.ttf'
p2615
aS'/Users/peitalin/Library/Fonts/Ubuntu Mono derivative Powerline Italic.ttf'
p2616
aS'/Library/Fonts/KozGoPro-Regular.otf'
p2617
aS'/Library/Fonts/Sathu.ttf'
p2618
aS'/Library/Fonts/GujaratiMT.ttf'
p2619
aS'/Library/Fonts/AppleSDGothicNeo-Medium.otf'
p2620
asS'_FontManager__default_weight'
p2621
g13
sS'_version'
p2622
I101
sS'ttf_lookup_cache'
p2623
(dp2624
sS'default_size'
p2625
NsS'defaultFont'
p2626
(dp2627
g2056
S'/usr/local/lib/python2.7/site-packages/matplotlib/mpl-data/fonts/pdfcorefonts/Helvetica-Bold.afm'
p2628
sg2058
g2084
ssS'afmfiles'
p2629
(lp2630
g2628
aS'/usr/local/lib/python2.7/site-packages/matplotlib/mpl-data/fonts/pdfcorefonts/Courier-Oblique.afm'
p2631
aS'/usr/local/lib/python2.7/site-packages/matplotlib/mpl-data/fonts/afm/phvb8a.afm'
p2632
aS'/usr/local/lib/python2.7/site-packages/matplotlib/mpl-data/fonts/pdfcorefonts/Times-Bold.afm'
p2633
aS'/usr/local/lib/python2.7/site-packages/matplotlib/mpl-data/fonts/afm/pbkli8a.afm'
p2634
aS'/usr/local/lib/python2.7/site-packages/matplotlib/mpl-data/fonts/pdfcorefonts/Courier-BoldOblique.afm'
p2635
aS'/usr/local/lib/python2.7/site-packages/matplotlib/mpl-data/fonts/afm/phvr8an.afm'
p2636
aS'/usr/local/lib/python2.7/site-packages/matplotlib/mpl-data/fonts/pdfcorefonts/Courier.afm'
p2637
aS'/usr/local/lib/python2.7/site-packages/matplotlib/mpl-data/fonts/afm/ptmri8a.afm'
p2638
aS'/usr/local/lib/python2.7/site-packages/matplotlib/mpl-data/fonts/afm/cmex10.afm'
p2639
aS'/usr/local/lib/python2.7/site-packages/matplotlib/mpl-data/fonts/afm/pzdr.afm'
p2640
aS'/usr/local/lib/python2.7/site-packages/matplotlib/mpl-data/fonts/afm/phvr8a.afm'
p2641
aS'/usr/local/lib/python2.7/site-packages/matplotlib/mpl-data/fonts/afm/pncbi8a.afm'
p2642
aS'/usr/local/lib/python2.7/site-packages/matplotlib/mpl-data/fonts/afm/phvbo8an.afm'
p2643
aS'/usr/local/lib/python2.7/site-packages/matplotlib/mpl-data/fonts/afm/pagd8a.afm'
p2644
aS'/usr/local/lib/python2.7/site-packages/matplotlib/mpl-data/fonts/afm/pplbi8a.afm'
p2645
aS'/usr/local/lib/python2.7/site-packages/matplotlib/mpl-data/fonts/afm/cmtt10.afm'
p2646
aS'/usr/local/lib/python2.7/site-packages/matplotlib/mpl-data/fonts/afm/putri8a.afm'
p2647
aS'/usr/local/lib/python2.7/site-packages/matplotlib/mpl-data/fonts/afm/pplr8a.afm'
p2648
aS'/usr/local/lib/python2.7/site-packages/matplotlib/mpl-data/fonts/afm/cmsy10.afm'
p2649
aS'/usr/local/lib/python2.7/site-packages/matplotlib/mpl-data/fonts/afm/putb8a.afm'
p2650
aS'/usr/local/lib/python2.7/site-packages/matplotlib/mpl-data/fonts/pdfcorefonts/Helvetica.afm'
p2651
aS'/usr/local/lib/python2.7/site-packages/matplotlib/mpl-data/fonts/afm/pplb8a.afm'
p2652
aS'/usr/local/lib/python2.7/site-packages/matplotlib/mpl-data/fonts/afm/phvb8an.afm'
p2653
aS'/usr/local/lib/python2.7/site-packages/matplotlib/mpl-data/fonts/afm/putr8a.afm'
p2654
aS'/usr/local/lib/python2.7/site-packages/matplotlib/mpl-data/fonts/afm/phvro8a.afm'
p2655
aS'/usr/local/lib/python2.7/site-packages/matplotlib/mpl-data/fonts/pdfcorefonts/Helvetica-BoldOblique.afm'
p2656
aS'/usr/local/lib/python2.7/site-packages/matplotlib/mpl-data/fonts/pdfcorefonts/Symbol.afm'
p2657
aS'/usr/local/lib/python2.7/site-packages/matplotlib/mpl-data/fonts/afm/pplri8a.afm'
p2658
aS'/usr/local/lib/python2.7/site-packages/matplotlib/mpl-data/fonts/pdfcorefonts/Times-Italic.afm'
p2659
aS'/usr/local/lib/python2.7/site-packages/matplotlib/mpl-data/fonts/afm/ptmb8a.afm'
p2660
aS'/usr/local/lib/python2.7/site-packages/matplotlib/mpl-data/fonts/afm/ptmr8a.afm'
p2661
aS'/usr/local/lib/python2.7/site-packages/matplotlib/mpl-data/fonts/afm/phvl8a.afm'
p2662
aS'/usr/local/lib/python2.7/site-packages/matplotlib/mpl-data/fonts/afm/putbi8a.afm'
p2663
aS'/usr/local/lib/python2.7/site-packages/matplotlib/mpl-data/fonts/afm/pncri8a.afm'
p2664
aS'/usr/local/lib/python2.7/site-packages/matplotlib/mpl-data/fonts/afm/cmr10.afm'
p2665
aS'/usr/local/lib/python2.7/site-packages/matplotlib/mpl-data/fonts/afm/pbkl8a.afm'
p2666
aS'/usr/local/lib/python2.7/site-packages/matplotlib/mpl-data/fonts/pdfcorefonts/Helvetica-Oblique.afm'
p2667
aS'/usr/local/lib/python2.7/site-packages/matplotlib/mpl-data/fonts/pdfcorefonts/Times-BoldItalic.afm'
p2668
aS'/usr/local/lib/python2.7/site-packages/matplotlib/mpl-data/fonts/afm/phvlo8a.afm'
p2669
aS'/usr/local/lib/python2.7/site-packages/matplotlib/mpl-data/fonts/afm/pcrbo8a.afm'
p2670
aS'/usr/local/lib/python2.7/site-packages/matplotlib/mpl-data/fonts/pdfcorefonts/Courier-Bold.afm'
p2671
aS'/usr/local/lib/python2.7/site-packages/matplotlib/mpl-data/fonts/afm/phvro8an.afm'
p2672
aS'/usr/local/lib/python2.7/site-packages/matplotlib/mpl-data/fonts/afm/ptmbi8a.afm'
p2673
aS'/usr/local/lib/python2.7/site-packages/matplotlib/mpl-data/fonts/afm/pcrb8a.afm'
p2674
aS'/usr/local/lib/python2.7/site-packages/matplotlib/mpl-data/fonts/afm/phvbo8a.afm'
p2675
aS'/usr/local/lib/python2.7/site-packages/matplotlib/mpl-data/fonts/afm/pncr8a.afm'
p2676
aS'/usr/local/lib/python2.7/site-packages/matplotlib/mpl-data/fonts/afm/psyr.afm'
p2677
aS'/usr/local/lib/python2.7/site-packages/matplotlib/mpl-data/fonts/afm/pcrro8a.afm'
p2678
aS'/usr/local/lib/python2.7/site-packages/matplotlib/mpl-data/fonts/pdfcorefonts/ZapfDingbats.afm'
p2679
aS'/usr/local/lib/python2.7/site-packages/matplotlib/mpl-data/fonts/afm/cmmi10.afm'
p2680
aS'/usr/local/lib/python2.7/site-packages/matplotlib/mpl-data/fonts/afm/pcrr8a.afm'
p2681
aS'/usr/local/lib/python2.7/site-packages/matplotlib/mpl-data/fonts/afm/pncb8a.afm'
p2682
aS'/usr/local/lib/python2.7/site-packages/matplotlib/mpl-data/fonts/afm/pbkd8a.afm'
p2683
aS'/usr/local/lib/python2.7/site-packages/matplotlib/mpl-data/fonts/afm/pzcmi8a.afm'
p2684
aS'/usr/local/lib/python2.7/site-packages/matplotlib/mpl-data/fonts/afm/pagko8a.afm'
p2685
aS'/usr/local/lib/python2.7/site-packages/matplotlib/mpl-data/fonts/pdfcorefonts/Times-Roman.afm'
p2686
aS'/usr/local/lib/python2.7/site-packages/matplotlib/mpl-data/fonts/afm/pagk8a.afm'
p2687
aS'/usr/local/lib/python2.7/site-packages/matplotlib/mpl-data/fonts/afm/pagdo8a.afm'
p2688
aS'/usr/local/lib/python2.7/site-packages/matplotlib/mpl-data/fonts/afm/pbkdi8a.afm'
p2689
aS'/usr/X11/lib/X11/fonts/Type1/UTB_____.afm'
p2690
aS'/usr/X11/lib/X11/fonts/Type1/c0583bt_.afm'
p2691
aS'/usr/X11/lib/X11/fonts/Type1/l049036t.afm'
p2692
aS'/usr/X11/lib/X11/fonts/Type1/c0649bt_.afm'
p2693
aS'/usr/X11/lib/X11/fonts/Type1/UTRG____.afm'
p2694
aS'/usr/X11/lib/X11/fonts/Type1/c0582bt_.afm'
p2695
aS'/usr/X11/lib/X11/fonts/Type1/c0648bt_.afm'
p2696
aS'/usr/X11/lib/X11/fonts/Type1/c0633bt_.afm'
p2697
aS'/usr/X11/lib/X11/fonts/Type1/l048013t.afm'
p2698
aS'/usr/X11/lib/X11/fonts/Type1/courb.afm'
p2699
aS'/usr/X11/lib/X11/fonts/Type1/c0419bt_.afm'
p2700
aS'/usr/X11/lib/X11/fonts/Type1/UTI_____.afm'
p2701
aS'/usr/X11/lib/X11/fonts/Type1/l049016t.afm'
p2702
aS'/usr/X11/lib/X11/fonts/Type1/l048033t.afm'
p2703
aS'/usr/X11/lib/X11/fonts/Type1/l048016t.afm'
p2704
aS'/usr/X11/lib/X11/fonts/Type1/l048036t.afm'
p2705
aS'/usr/X11/lib/X11/fonts/Type1/courbi.afm'
p2706
aS'/usr/X11/lib/X11/fonts/Type1/c0632bt_.afm'
p2707
aS'/usr/X11/lib/X11/fonts/Type1/l049013t.afm'
p2708
aS'/usr/X11/lib/X11/fonts/Type1/c0611bt_.afm'
p2709
aS'/usr/X11/lib/X11/fonts/Type1/l047036t.afm'
p2710
aS'/usr/X11/lib/X11/fonts/Type1/l047016t.afm'
p2711
aS'/usr/X11/lib/X11/fonts/Type1/l047033t.afm'
p2712
aS'/usr/X11/lib/X11/fonts/Type1/l047013t.afm'
p2713
aS'/usr/X11/lib/X11/fonts/Type1/l049033t.afm'
p2714
aS'/usr/X11/lib/X11/fonts/Type1/UTBI____.afm'
p2715
aS'/usr/X11/lib/X11/fonts/Type1/cour.afm'
p2716
aS'/usr/X11/lib/X11/fonts/Type1/couri.afm'
p2717
asS'afmlist'
p2718
(lp2719
g7
(g8
g9
NtRp2720
(dp2721
g12
g13
sg14
S'Helvetica'
p2722
sg16
I700
sg17
g13
sg18
g13
sg19
g2628
sg21
g22
sbag7
(g8
g9
NtRp2723
(dp2724
g12
g41
sg14
S'Courier'
p2725
sg16
I500
sg17
g13
sg18
g13
sg19
g2631
sg21
g22
sbag7
(g8
g9
NtRp2726
(dp2727
g12
g13
sg14
S'Helvetica'
p2728
sg16
I700
sg17
g13
sg18
g13
sg19
g2632
sg21
g22
sbag7
(g8
g9
NtRp2729
(dp2730
g12
g13
sg14
S'Times'
p2731
sg16
I700
sg17
g13
sg18
g13
sg19
g2633
sg21
g22
sbag7
(g8
g9
NtRp2732
(dp2733
g12
g41
sg14
S'ITC Bookman'
p2734
sg16
I200
sg17
g13
sg18
g13
sg19
g2634
sg21
g22
sbag7
(g8
g9
NtRp2735
(dp2736
g12
g41
sg14
S'Courier'
p2737
sg16
I700
sg17
g13
sg18
g13
sg19
g2635
sg21
g22
sbag7
(g8
g9
NtRp2738
(dp2739
g12
g13
sg14
S'Helvetica'
p2740
sg16
I500
sg17
g172
sg18
g13
sg19
g2636
sg21
g22
sbag7
(g8
g9
NtRp2741
(dp2742
g12
g13
sg14
S'Courier'
p2743
sg16
I500
sg17
g13
sg18
g13
sg19
g2637
sg21
g22
sbag7
(g8
g9
NtRp2744
(dp2745
g12
g41
sg14
S'Times'
p2746
sg16
I500
sg17
g13
sg18
g13
sg19
g2638
sg21
g22
sbag7
(g8
g9
NtRp2747
(dp2748
g12
g13
sg14
S'Computer Modern'
p2749
sg16
I500
sg17
g13
sg18
g13
sg19
g2639
sg21
g22
sbag7
(g8
g9
NtRp2750
(dp2751
g12
g13
sg14
S'ITC Zapf Dingbats'
p2752
sg16
I500
sg17
g13
sg18
g13
sg19
g2640
sg21
g22
sbag7
(g8
g9
NtRp2753
(dp2754
g12
g13
sg14
S'Helvetica'
p2755
sg16
I500
sg17
g13
sg18
g13
sg19
g2641
sg21
g22
sbag7
(g8
g9
NtRp2756
(dp2757
g12
g41
sg14
S'New Century Schoolbook'
p2758
sg16
I700
sg17
g13
sg18
g13
sg19
g2642
sg21
g22
sbag7
(g8
g9
NtRp2759
(dp2760
g12
g41
sg14
S'Helvetica'
p2761
sg16
I700
sg17
g172
sg18
g13
sg19
g2643
sg21
g22
sbag7
(g8
g9
NtRp2762
(dp2763
g12
g13
sg14
S'ITC Avant Garde Gothic'
p2764
sg16
I600
sg17
g13
sg18
g13
sg19
g2644
sg21
g22
sbag7
(g8
g9
NtRp2765
(dp2766
g12
g41
sg14
S'Palatino'
p2767
sg16
I700
sg17
g13
sg18
g13
sg19
g2645
sg21
g22
sbag7
(g8
g9
NtRp2768
(dp2769
g12
g13
sg14
S'Computer Modern'
p2770
sg16
I500
sg17
g13
sg18
g13
sg19
g2646
sg21
g22
sbag7
(g8
g9
NtRp2771
(dp2772
g12
g41
sg14
S'Utopia'
p2773
sg16
I400
sg17
g13
sg18
g13
sg19
g2647
sg21
g22
sbag7
(g8
g9
NtRp2774
(dp2775
g12
g13
sg14
S'Palatino'
p2776
sg16
I500
sg17
g13
sg18
g13
sg19
g2648
sg21
g22
sbag7
(g8
g9
NtRp2777
(dp2778
g12
g41
sg14
S'Computer Modern'
p2779
sg16
I500
sg17
g13
sg18
g13
sg19
g2649
sg21
g22
sbag7
(g8
g9
NtRp2780
(dp2781
g12
g13
sg14
S'Utopia'
p2782
sg16
I700
sg17
g13
sg18
g13
sg19
g2650
sg21
g22
sbag7
(g8
g9
NtRp2783
(dp2784
g12
g13
sg14
S'Helvetica'
p2785
sg16
I500
sg17
g13
sg18
g13
sg19
g2651
sg21
g22
sbag7
(g8
g9
NtRp2786
(dp2787
g12
g13
sg14
S'Palatino'
p2788
sg16
I700
sg17
g13
sg18
g13
sg19
g2652
sg21
g22
sbag7
(g8
g9
NtRp2789
(dp2790
g12
g13
sg14
S'Helvetica'
p2791
sg16
I700
sg17
g172
sg18
g13
sg19
g2653
sg21
g22
sbag7
(g8
g9
NtRp2792
(dp2793
g12
g13
sg14
S'Utopia'
p2794
sg16
I400
sg17
g13
sg18
g13
sg19
g2654
sg21
g22
sbag7
(g8
g9
NtRp2795
(dp2796
g12
g41
sg14
S'Helvetica'
p2797
sg16
I500
sg17
g13
sg18
g13
sg19
g2655
sg21
g22
sbag7
(g8
g9
NtRp2798
(dp2799
g12
g41
sg14
S'Helvetica'
p2800
sg16
I700
sg17
g13
sg18
g13
sg19
g2656
sg21
g22
sbag7
(g8
g9
NtRp2801
(dp2802
g12
g13
sg14
S'Symbol'
p2803
sg16
I500
sg17
g13
sg18
g13
sg19
g2657
sg21
g22
sbag7
(g8
g9
NtRp2804
(dp2805
g12
g41
sg14
S'Palatino'
p2806
sg16
I500
sg17
g13
sg18
g13
sg19
g2658
sg21
g22
sbag7
(g8
g9
NtRp2807
(dp2808
g12
g41
sg14
S'Times'
p2809
sg16
I500
sg17
g13
sg18
g13
sg19
g2659
sg21
g22
sbag7
(g8
g9
NtRp2810
(dp2811
g12
g13
sg14
S'Times'
p2812
sg16
I700
sg17
g13
sg18
g13
sg19
g2660
sg21
g22
sbag7
(g8
g9
NtRp2813
(dp2814
g12
g13
sg14
S'Times'
p2815
sg16
I500
sg17
g13
sg18
g13
sg19
g2661
sg21
g22
sbag7
(g8
g9
NtRp2816
(dp2817
g12
g13
sg14
S'Helvetica'
p2818
sg16
I200
sg17
g13
sg18
g13
sg19
g2662
sg21
g22
sbag7
(g8
g9
NtRp2819
(dp2820
g12
g41
sg14
S'Utopia'
p2821
sg16
I700
sg17
g13
sg18
g13
sg19
g2663
sg21
g22
sbag7
(g8
g9
NtRp2822
(dp2823
g12
g41
sg14
S'New Century Schoolbook'
p2824
sg16
I500
sg17
g13
sg18
g13
sg19
g2664
sg21
g22
sbag7
(g8
g9
NtRp2825
(dp2826
g12
g13
sg14
S'Computer Modern'
p2827
sg16
I500
sg17
g13
sg18
g13
sg19
g2665
sg21
g22
sbag7
(g8
g9
NtRp2828
(dp2829
g12
g13
sg14
S'ITC Bookman'
p2830
sg16
I200
sg17
g13
sg18
g13
sg19
g2666
sg21
g22
sbag7
(g8
g9
NtRp2831
(dp2832
g12
g41
sg14
S'Helvetica'
p2833
sg16
I500
sg17
g13
sg18
g13
sg19
g2667
sg21
g22
sbag7
(g8
g9
NtRp2834
(dp2835
g12
g41
sg14
S'Times'
p2836
sg16
I700
sg17
g13
sg18
g13
sg19
g2668
sg21
g22
sbag7
(g8
g9
NtRp2837
(dp2838
g12
g41
sg14
S'Helvetica'
p2839
sg16
I200
sg17
g13
sg18
g13
sg19
g2669
sg21
g22
sbag7
(g8
g9
NtRp2840
(dp2841
g12
g41
sg14
S'Courier'
p2842
sg16
I700
sg17
g13
sg18
g13
sg19
g2670
sg21
g22
sbag7
(g8
g9
NtRp2843
(dp2844
g12
g13
sg14
S'Courier'
p2845
sg16
I700
sg17
g13
sg18
g13
sg19
g2671
sg21
g22
sbag7
(g8
g9
NtRp2846
(dp2847
g12
g41
sg14
S'Helvetica'
p2848
sg16
I500
sg17
g172
sg18
g13
sg19
g2672
sg21
g22
sbag7
(g8
g9
NtRp2849
(dp2850
g12
g41
sg14
S'Times'
p2851
sg16
I700
sg17
g13
sg18
g13
sg19
g2673
sg21
g22
sbag7
(g8
g9
NtRp2852
(dp2853
g12
g13
sg14
S'Courier'
p2854
sg16
I700
sg17
g13
sg18
g13
sg19
g2674
sg21
g22
sbag7
(g8
g9
NtRp2855
(dp2856
g12
g41
sg14
S'Helvetica'
p2857
sg16
I700
sg17
g13
sg18
g13
sg19
g2675
sg21
g22
sbag7
(g8
g9
NtRp2858
(dp2859
g12
g13
sg14
S'New Century Schoolbook'
p2860
sg16
I500
sg17
g13
sg18
g13
sg19
g2676
sg21
g22
sbag7
(g8
g9
NtRp2861
(dp2862
g12
g13
sg14
S'Symbol'
p2863
sg16
I500
sg17
g13
sg18
g13
sg19
g2677
sg21
g22
sbag7
(g8
g9
NtRp2864
(dp2865
g12
g41
sg14
S'Courier'
p2866
sg16
I500
sg17
g13
sg18
g13
sg19
g2678
sg21
g22
sbag7
(g8
g9
NtRp2867
(dp2868
g12
g13
sg14
S'ZapfDingbats'
p2869
sg16
I500
sg17
g13
sg18
g13
sg19
g2679
sg21
g22
sbag7
(g8
g9
NtRp2870
(dp2871
g12
g41
sg14
S'Computer Modern'
p2872
sg16
I500
sg17
g13
sg18
g13
sg19
g2680
sg21
g22
sbag7
(g8
g9
NtRp2873
(dp2874
g12
g13
sg14
S'Courier'
p2875
sg16
I500
sg17
g13
sg18
g13
sg19
g2681
sg21
g22
sbag7
(g8
g9
NtRp2876
(dp2877
g12
g13
sg14
S'New Century Schoolbook'
p2878
sg16
I700
sg17
g13
sg18
g13
sg19
g2682
sg21
g22
sbag7
(g8
g9
NtRp2879
(dp2880
g12
g13
sg14
S'ITC Bookman'
p2881
sg16
I600
sg17
g13
sg18
g13
sg19
g2683
sg21
g22
sbag7
(g8
g9
NtRp2882
(dp2883
g12
g41
sg14
S'ITC Zapf Chancery'
p2884
sg16
I500
sg17
g13
sg18
g13
sg19
g2684
sg21
g22
sbag7
(g8
g9
NtRp2885
(dp2886
g12
g41
sg14
S'ITC Avant Garde Gothic'
p2887
sg16
I400
sg17
g13
sg18
g13
sg19
g2685
sg21
g22
sbag7
(g8
g9
NtRp2888
(dp2889
g12
g13
sg14
S'Times'
p2890
sg16
I500
sg17
g13
sg18
g13
sg19
g2686
sg21
g22
sbag7
(g8
g9
NtRp2891
(dp2892
g12
g13
sg14
S'ITC Avant Garde Gothic'
p2893
sg16
I400
sg17
g13
sg18
g13
sg19
g2687
sg21
g22
sbag7
(g8
g9
NtRp2894
(dp2895
g12
g41
sg14
S'ITC Avant Garde Gothic'
p2896
sg16
I600
sg17
g13
sg18
g13
sg19
g2688
sg21
g22
sbag7
(g8
g9
NtRp2897
(dp2898
g12
g41
sg14
S'ITC Bookman'
p2899
sg16
I600
sg17
g13
sg18
g13
sg19
g2689
sg21
g22
sbag7
(g8
g9
NtRp2900
(dp2901
g12
g13
sg14
S'Utopia'
p2902
sg16
I700
sg17
g13
sg18
g13
sg19
g2690
sg21
g22
sbag7
(g8
g9
NtRp2903
(dp2904
g12
g13
sg14
S'Courier 10 Pitch'
p2905
sg16
I700
sg17
g13
sg18
g13
sg19
g2691
sg21
g22
sbag7
(g8
g9
NtRp2906
(dp2907
g12
g41
sg14
S'Luxi Serif'
p2908
sg16
I700
sg17
g13
sg18
g13
sg19
g2692
sg21
g22
sbag7
(g8
g9
NtRp2909
(dp2910
g12
g41
sg14
S'Bitstream Charter'
p2911
sg16
I400
sg17
g13
sg18
g13
sg19
g2693
sg21
g22
sbag7
(g8
g9
NtRp2912
(dp2913
g12
g13
sg14
S'Utopia'
p2914
sg16
I400
sg17
g13
sg18
g13
sg19
g2694
sg21
g22
sbag7
(g8
g9
NtRp2915
(dp2916
g12
g41
sg14
S'Courier 10 Pitch'
p2917
sg16
I400
sg17
g13
sg18
g13
sg19
g2695
sg21
g22
sbag7
(g8
g9
NtRp2918
(dp2919
g12
g13
sg14
S'Bitstream Charter'
p2920
sg16
I400
sg17
g13
sg18
g13
sg19
g2696
sg21
g22
sbag7
(g8
g9
NtRp2921
(dp2922
g12
g41
sg14
S'Bitstream Charter'
p2923
sg16
I700
sg17
g13
sg18
g13
sg19
g2697
sg21
g22
sbag7
(g8
g9
NtRp2924
(dp2925
g12
g13
sg14
S'Luxi Sans'
p2926
sg16
I400
sg17
g13
sg18
g13
sg19
g2698
sg21
g22
sbag7
(g8
g9
NtRp2927
(dp2928
g12
g13
sg14
S'Courier'
p2929
sg16
I700
sg17
g13
sg18
g13
sg19
g2699
sg21
g22
sbag7
(g8
g9
NtRp2930
(dp2931
g12
g13
sg14
S'Courier 10 Pitch'
p2932
sg16
I400
sg17
g13
sg18
g13
sg19
g2700
sg21
g22
sbag7
(g8
g9
NtRp2933
(dp2934
g12
g41
sg14
S'Utopia'
p2935
sg16
I400
sg17
g13
sg18
g13
sg19
g2701
sg21
g22
sbag7
(g8
g9
NtRp2936
(dp2937
g12
g13
sg14
S'Luxi Serif'
p2938
sg16
I700
sg17
g13
sg18
g13
sg19
g2702
sg21
g22
sbag7
(g8
g9
NtRp2939
(dp2940
g12
g41
sg14
S'Luxi Sans'
p2941
sg16
I400
sg17
g13
sg18
g13
sg19
g2703
sg21
g22
sbag7
(g8
g9
NtRp2942
(dp2943
g12
g13
sg14
S'Luxi Sans'
p2944
sg16
I700
sg17
g13
sg18
g13
sg19
g2704
sg21
g22
sbag7
(g8
g9
NtRp2945
(dp2946
g12
g41
sg14
S'Luxi Sans'
p2947
sg16
I700
sg17
g13
sg18
g13
sg19
g2705
sg21
g22
sbag7
(g8
g9
NtRp2948
(dp2949
g12
g41
sg14
S'Courier'
p2950
sg16
I700
sg17
g13
sg18
g13
sg19
g2706
sg21
g22
sbag7
(g8
g9
NtRp2951
(dp2952
g12
g13
sg14
S'Bitstream Charter'
p2953
sg16
I700
sg17
g13
sg18
g13
sg19
g2707
sg21
g22
sbag7
(g8
g9
NtRp2954
(dp2955
g12
g13
sg14
S'Luxi Serif'
p2956
sg16
I400
sg17
g13
sg18
g13
sg19
g2708
sg21
g22
sbag7
(g8
g9
NtRp2957
(dp2958
g12
g41
sg14
S'Courier 10 Pitch'
p2959
sg16
I700
sg17
g13
sg18
g13
sg19
g2709
sg21
g22
sbag7
(g8
g9
NtRp2960
(dp2961
g12
g41
sg14
S'Luxi Mono'
p2962
sg16
I700
sg17
g13
sg18
g13
sg19
g2710
sg21
g22
sbag7
(g8
g9
NtRp2963
(dp2964
g12
g13
sg14
S'Luxi Mono'
p2965
sg16
I700
sg17
g13
sg18
g13
sg19
g2711
sg21
g22
sbag7
(g8
g9
NtRp2966
(dp2967
g12
g41
sg14
S'Luxi Mono'
p2968
sg16
I400
sg17
g13
sg18
g13
sg19
g2712
sg21
g22
sbag7
(g8
g9
NtRp2969
(dp2970
g12
g13
sg14
S'Luxi Mono'
p2971
sg16
I400
sg17
g13
sg18
g13
sg19
g2713
sg21
g22
sbag7
(g8
g9
NtRp2972
(dp2973
g12
g41
sg14
S'Luxi Serif'
p2974
sg16
I400
sg17
g13
sg18
g13
sg19
g2714
sg21
g22
sbag7
(g8
g9
NtRp2975
(dp2976
g12
g41
sg14
S'Utopia'
p2977
sg16
I700
sg17
g13
sg18
g13
sg19
g2715
sg21
g22
sbag7
(g8
g9
NtRp2978
(dp2979
g12
g13
sg14
S'Courier'
p2980
sg16
I400
sg17
g13
sg18
g13
sg19
g2716
sg21
g22
sbag7
(g8
g9
NtRp2981
(dp2982
g12
g41
sg14
S'Courier'
p2983
sg16
I400
sg17
g13
sg18
g13
sg19
g2717
sg21
g22
sbasb.